<abi-corpus architecture='elf-mips-r3000-be' soname='libc++_shared.so'>
  <elf-needed>
    <dependency name='libc.so'/>
  </elf-needed>
  <elf-function-symbols>
    <elf-symbol name='_Unwind_Backtrace' type='func-type' binding='global-binding' visibility='default-visibility' is-defined='yes'/>
    <elf-symbol name='_Unwind_DeleteException' type='func-type' binding='global-binding' visibility='default-visibility' is-defined='yes'/>
    <elf-symbol name='_Unwind_FindEnclosingFunction' type='func-type' binding='global-binding' visibility='default-visibility' is-defined='yes'/>
    <elf-symbol name='_Unwind_Find_FDE' type='func-type' binding='global-binding' visibility='default-visibility' is-defined='yes'/>
    <elf-symbol name='_Unwind_ForcedUnwind' type='func-type' binding='global-binding' visibility='default-visibility' is-defined='yes'/>
    <elf-symbol name='_Unwind_GetCFA' type='func-type' binding='global-binding' visibility='default-visibility' is-defined='yes'/>
    <elf-symbol name='_Unwind_GetDataRelBase' type='func-type' binding='global-binding' visibility='default-visibility' is-defined='yes'/>
    <elf-symbol name='_Unwind_GetGR' type='func-type' binding='global-binding' visibility='default-visibility' is-defined='yes'/>
    <elf-symbol name='_Unwind_GetIP' type='func-type' binding='global-binding' visibility='default-visibility' is-defined='yes'/>
    <elf-symbol name='_Unwind_GetIPInfo' type='func-type' binding='global-binding' visibility='default-visibility' is-defined='yes'/>
    <elf-symbol name='_Unwind_GetLanguageSpecificData' type='func-type' binding='global-binding' visibility='default-visibility' is-defined='yes'/>
    <elf-symbol name='_Unwind_GetRegionStart' type='func-type' binding='global-binding' visibility='default-visibility' is-defined='yes'/>
    <elf-symbol name='_Unwind_GetTextRelBase' type='func-type' binding='global-binding' visibility='default-visibility' is-defined='yes'/>
    <elf-symbol name='_Unwind_RaiseException' type='func-type' binding='global-binding' visibility='default-visibility' is-defined='yes'/>
    <elf-symbol name='_Unwind_Resume' type='func-type' binding='global-binding' visibility='default-visibility' is-defined='yes'/>
    <elf-symbol name='_Unwind_Resume_or_Rethrow' type='func-type' binding='global-binding' visibility='default-visibility' is-defined='yes'/>
    <elf-symbol name='_Unwind_SetGR' type='func-type' binding='global-binding' visibility='default-visibility' is-defined='yes'/>
    <elf-symbol name='_Unwind_SetIP' type='func-type' binding='global-binding' visibility='default-visibility' is-defined='yes'/>
    <elf-symbol name='_ZNKSt10bad_typeid4whatEv' type='func-type' binding='global-binding' visibility='default-visibility' is-defined='yes'/>
    <elf-symbol name='_ZNKSt11logic_error4whatEv' type='func-type' binding='global-binding' visibility='default-visibility' is-defined='yes'/>
    <elf-symbol name='_ZNKSt12bad_any_cast4whatEv' type='func-type' binding='global-binding' visibility='default-visibility' is-defined='yes'/>
    <elf-symbol name='_ZNKSt12experimental15fundamentals_v112bad_any_cast4whatEv' type='func-type' binding='global-binding' visibility='default-visibility' is-defined='yes'/>
    <elf-symbol name='_ZNKSt13bad_exception4whatEv' type='func-type' binding='global-binding' visibility='default-visibility' is-defined='yes'/>
    <elf-symbol name='_ZNKSt13runtime_error4whatEv' type='func-type' binding='global-binding' visibility='default-visibility' is-defined='yes'/>
    <elf-symbol name='_ZNKSt16nested_exception14rethrow_nestedEv' type='func-type' binding='global-binding' visibility='default-visibility' is-defined='yes'/>
    <elf-symbol name='_ZNKSt18bad_variant_access4whatEv' type='func-type' binding='global-binding' visibility='default-visibility' is-defined='yes'/>
    <elf-symbol name='_ZNKSt19bad_optional_access4whatEv' type='func-type' binding='global-binding' visibility='default-visibility' is-defined='yes'/>
    <elf-symbol name='_ZNKSt20bad_array_new_length4whatEv' type='func-type' binding='global-binding' visibility='default-visibility' is-defined='yes'/>
    <elf-symbol name='_ZNKSt4__n110__time_put8__do_putEPcRS1_PK2tmcc' type='func-type' binding='global-binding' visibility='default-visibility' is-defined='yes'/>
    <elf-symbol name='_ZNKSt4__n110__time_put8__do_putEPwRS1_PK2tmcc' type='func-type' binding='global-binding' visibility='default-visibility' is-defined='yes'/>
    <elf-symbol name='_ZNKSt4__n110error_code7messageEv' type='func-type' binding='global-binding' visibility='default-visibility' is-defined='yes'/>
    <elf-symbol name='_ZNKSt4__n110moneypunctIcLb0EE11do_groupingEv' type='func-type' binding='weak-binding' visibility='default-visibility' is-defined='yes'/>
    <elf-symbol name='_ZNKSt4__n110moneypunctIcLb0EE13do_neg_formatEv' type='func-type' binding='weak-binding' visibility='default-visibility' is-defined='yes'/>
    <elf-symbol name='_ZNKSt4__n110moneypunctIcLb0EE13do_pos_formatEv' type='func-type' binding='weak-binding' visibility='default-visibility' is-defined='yes'/>
    <elf-symbol name='_ZNKSt4__n110moneypunctIcLb0EE14do_curr_symbolEv' type='func-type' binding='weak-binding' visibility='default-visibility' is-defined='yes'/>
    <elf-symbol name='_ZNKSt4__n110moneypunctIcLb0EE14do_frac_digitsEv' type='func-type' binding='weak-binding' visibility='default-visibility' is-defined='yes'/>
    <elf-symbol name='_ZNKSt4__n110moneypunctIcLb0EE16do_decimal_pointEv' type='func-type' binding='weak-binding' visibility='default-visibility' is-defined='yes'/>
    <elf-symbol name='_ZNKSt4__n110moneypunctIcLb0EE16do_negative_signEv' type='func-type' binding='weak-binding' visibility='default-visibility' is-defined='yes'/>
    <elf-symbol name='_ZNKSt4__n110moneypunctIcLb0EE16do_positive_signEv' type='func-type' binding='weak-binding' visibility='default-visibility' is-defined='yes'/>
    <elf-symbol name='_ZNKSt4__n110moneypunctIcLb0EE16do_thousands_sepEv' type='func-type' binding='weak-binding' visibility='default-visibility' is-defined='yes'/>
    <elf-symbol name='_ZNKSt4__n110moneypunctIcLb1EE11do_groupingEv' type='func-type' binding='weak-binding' visibility='default-visibility' is-defined='yes'/>
    <elf-symbol name='_ZNKSt4__n110moneypunctIcLb1EE13do_neg_formatEv' type='func-type' binding='weak-binding' visibility='default-visibility' is-defined='yes'/>
    <elf-symbol name='_ZNKSt4__n110moneypunctIcLb1EE13do_pos_formatEv' type='func-type' binding='weak-binding' visibility='default-visibility' is-defined='yes'/>
    <elf-symbol name='_ZNKSt4__n110moneypunctIcLb1EE14do_curr_symbolEv' type='func-type' binding='weak-binding' visibility='default-visibility' is-defined='yes'/>
    <elf-symbol name='_ZNKSt4__n110moneypunctIcLb1EE14do_frac_digitsEv' type='func-type' binding='weak-binding' visibility='default-visibility' is-defined='yes'/>
    <elf-symbol name='_ZNKSt4__n110moneypunctIcLb1EE16do_decimal_pointEv' type='func-type' binding='weak-binding' visibility='default-visibility' is-defined='yes'/>
    <elf-symbol name='_ZNKSt4__n110moneypunctIcLb1EE16do_negative_signEv' type='func-type' binding='weak-binding' visibility='default-visibility' is-defined='yes'/>
    <elf-symbol name='_ZNKSt4__n110moneypunctIcLb1EE16do_positive_signEv' type='func-type' binding='weak-binding' visibility='default-visibility' is-defined='yes'/>
    <elf-symbol name='_ZNKSt4__n110moneypunctIcLb1EE16do_thousands_sepEv' type='func-type' binding='weak-binding' visibility='default-visibility' is-defined='yes'/>
    <elf-symbol name='_ZNKSt4__n110moneypunctIwLb0EE11do_groupingEv' type='func-type' binding='weak-binding' visibility='default-visibility' is-defined='yes'/>
    <elf-symbol name='_ZNKSt4__n110moneypunctIwLb0EE13do_neg_formatEv' type='func-type' binding='weak-binding' visibility='default-visibility' is-defined='yes'/>
    <elf-symbol name='_ZNKSt4__n110moneypunctIwLb0EE13do_pos_formatEv' type='func-type' binding='weak-binding' visibility='default-visibility' is-defined='yes'/>
    <elf-symbol name='_ZNKSt4__n110moneypunctIwLb0EE14do_curr_symbolEv' type='func-type' binding='weak-binding' visibility='default-visibility' is-defined='yes'/>
    <elf-symbol name='_ZNKSt4__n110moneypunctIwLb0EE14do_frac_digitsEv' type='func-type' binding='weak-binding' visibility='default-visibility' is-defined='yes'/>
    <elf-symbol name='_ZNKSt4__n110moneypunctIwLb0EE16do_decimal_pointEv' type='func-type' binding='weak-binding' visibility='default-visibility' is-defined='yes'/>
    <elf-symbol name='_ZNKSt4__n110moneypunctIwLb0EE16do_negative_signEv' type='func-type' binding='weak-binding' visibility='default-visibility' is-defined='yes'/>
    <elf-symbol name='_ZNKSt4__n110moneypunctIwLb0EE16do_positive_signEv' type='func-type' binding='weak-binding' visibility='default-visibility' is-defined='yes'/>
    <elf-symbol name='_ZNKSt4__n110moneypunctIwLb0EE16do_thousands_sepEv' type='func-type' binding='weak-binding' visibility='default-visibility' is-defined='yes'/>
    <elf-symbol name='_ZNKSt4__n110moneypunctIwLb1EE11do_groupingEv' type='func-type' binding='weak-binding' visibility='default-visibility' is-defined='yes'/>
    <elf-symbol name='_ZNKSt4__n110moneypunctIwLb1EE13do_neg_formatEv' type='func-type' binding='weak-binding' visibility='default-visibility' is-defined='yes'/>
    <elf-symbol name='_ZNKSt4__n110moneypunctIwLb1EE13do_pos_formatEv' type='func-type' binding='weak-binding' visibility='default-visibility' is-defined='yes'/>
    <elf-symbol name='_ZNKSt4__n110moneypunctIwLb1EE14do_curr_symbolEv' type='func-type' binding='weak-binding' visibility='default-visibility' is-defined='yes'/>
    <elf-symbol name='_ZNKSt4__n110moneypunctIwLb1EE14do_frac_digitsEv' type='func-type' binding='weak-binding' visibility='default-visibility' is-defined='yes'/>
    <elf-symbol name='_ZNKSt4__n110moneypunctIwLb1EE16do_decimal_pointEv' type='func-type' binding='weak-binding' visibility='default-visibility' is-defined='yes'/>
    <elf-symbol name='_ZNKSt4__n110moneypunctIwLb1EE16do_negative_signEv' type='func-type' binding='weak-binding' visibility='default-visibility' is-defined='yes'/>
    <elf-symbol name='_ZNKSt4__n110moneypunctIwLb1EE16do_positive_signEv' type='func-type' binding='weak-binding' visibility='default-visibility' is-defined='yes'/>
    <elf-symbol name='_ZNKSt4__n110moneypunctIwLb1EE16do_thousands_sepEv' type='func-type' binding='weak-binding' visibility='default-visibility' is-defined='yes'/>
    <elf-symbol name='_ZNKSt4__n112bad_weak_ptr4whatEv' type='func-type' binding='global-binding' visibility='default-visibility' is-defined='yes'/>
    <elf-symbol name='_ZNKSt4__n112basic_stringIcNS_11char_traitsIcEENS_9allocatorIcEEE12find_last_ofEPKcjj' type='func-type' binding='weak-binding' visibility='default-visibility' is-defined='yes'/>
    <elf-symbol name='_ZNKSt4__n112basic_stringIcNS_11char_traitsIcEENS_9allocatorIcEEE13find_first_ofEPKcjj' type='func-type' binding='weak-binding' visibility='default-visibility' is-defined='yes'/>
    <elf-symbol name='_ZNKSt4__n112basic_stringIcNS_11char_traitsIcEENS_9allocatorIcEEE16find_last_not_ofEPKcjj' type='func-type' binding='weak-binding' visibility='default-visibility' is-defined='yes'/>
    <elf-symbol name='_ZNKSt4__n112basic_stringIcNS_11char_traitsIcEENS_9allocatorIcEEE17find_first_not_ofEPKcjj' type='func-type' binding='weak-binding' visibility='default-visibility' is-defined='yes'/>
    <elf-symbol name='_ZNKSt4__n112basic_stringIcNS_11char_traitsIcEENS_9allocatorIcEEE2atEj' type='func-type' binding='weak-binding' visibility='default-visibility' is-defined='yes'/>
    <elf-symbol name='_ZNKSt4__n112basic_stringIcNS_11char_traitsIcEENS_9allocatorIcEEE4copyEPcjj' type='func-type' binding='weak-binding' visibility='default-visibility' is-defined='yes'/>
    <elf-symbol name='_ZNKSt4__n112basic_stringIcNS_11char_traitsIcEENS_9allocatorIcEEE4findEPKcjj' type='func-type' binding='weak-binding' visibility='default-visibility' is-defined='yes'/>
    <elf-symbol name='_ZNKSt4__n112basic_stringIcNS_11char_traitsIcEENS_9allocatorIcEEE4findEcj' type='func-type' binding='weak-binding' visibility='default-visibility' is-defined='yes'/>
    <elf-symbol name='_ZNKSt4__n112basic_stringIcNS_11char_traitsIcEENS_9allocatorIcEEE5rfindEPKcjj' type='func-type' binding='weak-binding' visibility='default-visibility' is-defined='yes'/>
    <elf-symbol name='_ZNKSt4__n112basic_stringIcNS_11char_traitsIcEENS_9allocatorIcEEE5rfindEcj' type='func-type' binding='weak-binding' visibility='default-visibility' is-defined='yes'/>
    <elf-symbol name='_ZNKSt4__n112basic_stringIcNS_11char_traitsIcEENS_9allocatorIcEEE7compareEPKc' type='func-type' binding='weak-binding' visibility='default-visibility' is-defined='yes'/>
    <elf-symbol name='_ZNKSt4__n112basic_stringIcNS_11char_traitsIcEENS_9allocatorIcEEE7compareEjjPKc' type='func-type' binding='weak-binding' visibility='default-visibility' is-defined='yes'/>
    <elf-symbol name='_ZNKSt4__n112basic_stringIcNS_11char_traitsIcEENS_9allocatorIcEEE7compareEjjPKcj' type='func-type' binding='weak-binding' visibility='default-visibility' is-defined='yes'/>
    <elf-symbol name='_ZNKSt4__n112basic_stringIcNS_11char_traitsIcEENS_9allocatorIcEEE7compareEjjRKS5_jj' type='func-type' binding='weak-binding' visibility='default-visibility' is-defined='yes'/>
    <elf-symbol name='_ZNKSt4__n112basic_stringIwNS_11char_traitsIwEENS_9allocatorIwEEE12find_last_ofEPKwjj' type='func-type' binding='weak-binding' visibility='default-visibility' is-defined='yes'/>
    <elf-symbol name='_ZNKSt4__n112basic_stringIwNS_11char_traitsIwEENS_9allocatorIwEEE13find_first_ofEPKwjj' type='func-type' binding='weak-binding' visibility='default-visibility' is-defined='yes'/>
    <elf-symbol name='_ZNKSt4__n112basic_stringIwNS_11char_traitsIwEENS_9allocatorIwEEE16find_last_not_ofEPKwjj' type='func-type' binding='weak-binding' visibility='default-visibility' is-defined='yes'/>
    <elf-symbol name='_ZNKSt4__n112basic_stringIwNS_11char_traitsIwEENS_9allocatorIwEEE17find_first_not_ofEPKwjj' type='func-type' binding='weak-binding' visibility='default-visibility' is-defined='yes'/>
    <elf-symbol name='_ZNKSt4__n112basic_stringIwNS_11char_traitsIwEENS_9allocatorIwEEE2atEj' type='func-type' binding='weak-binding' visibility='default-visibility' is-defined='yes'/>
    <elf-symbol name='_ZNKSt4__n112basic_stringIwNS_11char_traitsIwEENS_9allocatorIwEEE4copyEPwjj' type='func-type' binding='weak-binding' visibility='default-visibility' is-defined='yes'/>
    <elf-symbol name='_ZNKSt4__n112basic_stringIwNS_11char_traitsIwEENS_9allocatorIwEEE4findEPKwjj' type='func-type' binding='weak-binding' visibility='default-visibility' is-defined='yes'/>
    <elf-symbol name='_ZNKSt4__n112basic_stringIwNS_11char_traitsIwEENS_9allocatorIwEEE4findEwj' type='func-type' binding='weak-binding' visibility='default-visibility' is-defined='yes'/>
    <elf-symbol name='_ZNKSt4__n112basic_stringIwNS_11char_traitsIwEENS_9allocatorIwEEE5rfindEPKwjj' type='func-type' binding='weak-binding' visibility='default-visibility' is-defined='yes'/>
    <elf-symbol name='_ZNKSt4__n112basic_stringIwNS_11char_traitsIwEENS_9allocatorIwEEE5rfindEwj' type='func-type' binding='weak-binding' visibility='default-visibility' is-defined='yes'/>
    <elf-symbol name='_ZNKSt4__n112basic_stringIwNS_11char_traitsIwEENS_9allocatorIwEEE7compareEPKw' type='func-type' binding='weak-binding' visibility='default-visibility' is-defined='yes'/>
    <elf-symbol name='_ZNKSt4__n112basic_stringIwNS_11char_traitsIwEENS_9allocatorIwEEE7compareEjjPKw' type='func-type' binding='weak-binding' visibility='default-visibility' is-defined='yes'/>
    <elf-symbol name='_ZNKSt4__n112basic_stringIwNS_11char_traitsIwEENS_9allocatorIwEEE7compareEjjPKwj' type='func-type' binding='weak-binding' visibility='default-visibility' is-defined='yes'/>
    <elf-symbol name='_ZNKSt4__n112basic_stringIwNS_11char_traitsIwEENS_9allocatorIwEEE7compareEjjRKS5_jj' type='func-type' binding='weak-binding' visibility='default-visibility' is-defined='yes'/>
    <elf-symbol name='_ZNKSt4__n112ctype_bynameIcE10do_tolowerEPcPKc' type='func-type' binding='global-binding' visibility='default-visibility' is-defined='yes'/>
    <elf-symbol name='_ZNKSt4__n112ctype_bynameIcE10do_tolowerEc' type='func-type' binding='global-binding' visibility='default-visibility' is-defined='yes'/>
    <elf-symbol name='_ZNKSt4__n112ctype_bynameIcE10do_toupperEPcPKc' type='func-type' binding='global-binding' visibility='default-visibility' is-defined='yes'/>
    <elf-symbol name='_ZNKSt4__n112ctype_bynameIcE10do_toupperEc' type='func-type' binding='global-binding' visibility='default-visibility' is-defined='yes'/>
    <elf-symbol name='_ZNKSt4__n112ctype_bynameIwE10do_scan_isEmPKwS3_' type='func-type' binding='global-binding' visibility='default-visibility' is-defined='yes'/>
    <elf-symbol name='_ZNKSt4__n112ctype_bynameIwE10do_tolowerEPwPKw' type='func-type' binding='global-binding' visibility='default-visibility' is-defined='yes'/>
    <elf-symbol name='_ZNKSt4__n112ctype_bynameIwE10do_tolowerEw' type='func-type' binding='global-binding' visibility='default-visibility' is-defined='yes'/>
    <elf-symbol name='_ZNKSt4__n112ctype_bynameIwE10do_toupperEPwPKw' type='func-type' binding='global-binding' visibility='default-visibility' is-defined='yes'/>
    <elf-symbol name='_ZNKSt4__n112ctype_bynameIwE10do_toupperEw' type='func-type' binding='global-binding' visibility='default-visibility' is-defined='yes'/>
    <elf-symbol name='_ZNKSt4__n112ctype_bynameIwE11do_scan_notEmPKwS3_' type='func-type' binding='global-binding' visibility='default-visibility' is-defined='yes'/>
    <elf-symbol name='_ZNKSt4__n112ctype_bynameIwE5do_isEPKwS3_Pm' type='func-type' binding='global-binding' visibility='default-visibility' is-defined='yes'/>
    <elf-symbol name='_ZNKSt4__n112ctype_bynameIwE5do_isEmw' type='func-type' binding='global-binding' visibility='default-visibility' is-defined='yes'/>
    <elf-symbol name='_ZNKSt4__n112ctype_bynameIwE8do_widenEPKcS3_Pw' type='func-type' binding='global-binding' visibility='default-visibility' is-defined='yes'/>
    <elf-symbol name='_ZNKSt4__n112ctype_bynameIwE8do_widenEc' type='func-type' binding='global-binding' visibility='default-visibility' is-defined='yes'/>
    <elf-symbol name='_ZNKSt4__n112ctype_bynameIwE9do_narrowEPKwS3_cPc' type='func-type' binding='global-binding' visibility='default-visibility' is-defined='yes'/>
    <elf-symbol name='_ZNKSt4__n112ctype_bynameIwE9do_narrowEwc' type='func-type' binding='global-binding' visibility='default-visibility' is-defined='yes'/>
    <elf-symbol name='_ZNKSt4__n112strstreambuf6pcountEv' type='func-type' binding='global-binding' visibility='default-visibility' is-defined='yes'/>
    <elf-symbol name='_ZNKSt4__n113random_device7entropyEv' type='func-type' binding='global-binding' visibility='default-visibility' is-defined='yes'/>
    <elf-symbol name='_ZNKSt4__n114__codecvt_utf8IDiE10do_unshiftER11__mbstate_tPcS4_RS4_' type='func-type' binding='global-binding' visibility='default-visibility' is-defined='yes'/>
    <elf-symbol name='_ZNKSt4__n114__codecvt_utf8IDiE11do_encodingEv' type='func-type' binding='global-binding' visibility='default-visibility' is-defined='yes'/>
    <elf-symbol name='_ZNKSt4__n114__codecvt_utf8IDiE13do_max_lengthEv' type='func-type' binding='global-binding' visibility='default-visibility' is-defined='yes'/>
    <elf-symbol name='_ZNKSt4__n114__codecvt_utf8IDiE16do_always_noconvEv' type='func-type' binding='global-binding' visibility='default-visibility' is-defined='yes'/>
    <elf-symbol name='_ZNKSt4__n114__codecvt_utf8IDiE5do_inER11__mbstate_tPKcS5_RS5_PDiS7_RS7_' type='func-type' binding='global-binding' visibility='default-visibility' is-defined='yes'/>
    <elf-symbol name='_ZNKSt4__n114__codecvt_utf8IDiE6do_outER11__mbstate_tPKDiS5_RS5_PcS7_RS7_' type='func-type' binding='global-binding' visibility='default-visibility' is-defined='yes'/>
    <elf-symbol name='_ZNKSt4__n114__codecvt_utf8IDiE9do_lengthER11__mbstate_tPKcS5_j' type='func-type' binding='global-binding' visibility='default-visibility' is-defined='yes'/>
    <elf-symbol name='_ZNKSt4__n114__codecvt_utf8IDsE10do_unshiftER11__mbstate_tPcS4_RS4_' type='func-type' binding='global-binding' visibility='default-visibility' is-defined='yes'/>
    <elf-symbol name='_ZNKSt4__n114__codecvt_utf8IDsE11do_encodingEv' type='func-type' binding='global-binding' visibility='default-visibility' is-defined='yes'/>
    <elf-symbol name='_ZNKSt4__n114__codecvt_utf8IDsE13do_max_lengthEv' type='func-type' binding='global-binding' visibility='default-visibility' is-defined='yes'/>
    <elf-symbol name='_ZNKSt4__n114__codecvt_utf8IDsE16do_always_noconvEv' type='func-type' binding='global-binding' visibility='default-visibility' is-defined='yes'/>
    <elf-symbol name='_ZNKSt4__n114__codecvt_utf8IDsE5do_inER11__mbstate_tPKcS5_RS5_PDsS7_RS7_' type='func-type' binding='global-binding' visibility='default-visibility' is-defined='yes'/>
    <elf-symbol name='_ZNKSt4__n114__codecvt_utf8IDsE6do_outER11__mbstate_tPKDsS5_RS5_PcS7_RS7_' type='func-type' binding='global-binding' visibility='default-visibility' is-defined='yes'/>
    <elf-symbol name='_ZNKSt4__n114__codecvt_utf8IDsE9do_lengthER11__mbstate_tPKcS5_j' type='func-type' binding='global-binding' visibility='default-visibility' is-defined='yes'/>
    <elf-symbol name='_ZNKSt4__n114__codecvt_utf8IwE10do_unshiftER11__mbstate_tPcS4_RS4_' type='func-type' binding='global-binding' visibility='default-visibility' is-defined='yes'/>
    <elf-symbol name='_ZNKSt4__n114__codecvt_utf8IwE11do_encodingEv' type='func-type' binding='global-binding' visibility='default-visibility' is-defined='yes'/>
    <elf-symbol name='_ZNKSt4__n114__codecvt_utf8IwE13do_max_lengthEv' type='func-type' binding='global-binding' visibility='default-visibility' is-defined='yes'/>
    <elf-symbol name='_ZNKSt4__n114__codecvt_utf8IwE16do_always_noconvEv' type='func-type' binding='global-binding' visibility='default-visibility' is-defined='yes'/>
    <elf-symbol name='_ZNKSt4__n114__codecvt_utf8IwE5do_inER11__mbstate_tPKcS5_RS5_PwS7_RS7_' type='func-type' binding='global-binding' visibility='default-visibility' is-defined='yes'/>
    <elf-symbol name='_ZNKSt4__n114__codecvt_utf8IwE6do_outER11__mbstate_tPKwS5_RS5_PcS7_RS7_' type='func-type' binding='global-binding' visibility='default-visibility' is-defined='yes'/>
    <elf-symbol name='_ZNKSt4__n114__codecvt_utf8IwE9do_lengthER11__mbstate_tPKcS5_j' type='func-type' binding='global-binding' visibility='default-visibility' is-defined='yes'/>
    <elf-symbol name='_ZNKSt4__n114collate_bynameIcE10do_compareEPKcS3_S3_S3_' type='func-type' binding='global-binding' visibility='default-visibility' is-defined='yes'/>
    <elf-symbol name='_ZNKSt4__n114collate_bynameIcE12do_transformEPKcS3_' type='func-type' binding='global-binding' visibility='default-visibility' is-defined='yes'/>
    <elf-symbol name='_ZNKSt4__n114collate_bynameIwE10do_compareEPKwS3_S3_S3_' type='func-type' binding='global-binding' visibility='default-visibility' is-defined='yes'/>
    <elf-symbol name='_ZNKSt4__n114collate_bynameIwE12do_transformEPKwS3_' type='func-type' binding='global-binding' visibility='default-visibility' is-defined='yes'/>
    <elf-symbol name='_ZNKSt4__n114error_category10equivalentERKNS_10error_codeEi' type='func-type' binding='global-binding' visibility='default-visibility' is-defined='yes'/>
    <elf-symbol name='_ZNKSt4__n114error_category10equivalentEiRKNS_15error_conditionE' type='func-type' binding='global-binding' visibility='default-visibility' is-defined='yes'/>
    <elf-symbol name='_ZNKSt4__n114error_category23default_error_conditionEi' type='func-type' binding='global-binding' visibility='default-visibility' is-defined='yes'/>
    <elf-symbol name='_ZNKSt4__n115__codecvt_utf16IDiLb0EE10do_unshiftER11__mbstate_tPcS4_RS4_' type='func-type' binding='global-binding' visibility='default-visibility' is-defined='yes'/>
    <elf-symbol name='_ZNKSt4__n115__codecvt_utf16IDiLb0EE11do_encodingEv' type='func-type' binding='global-binding' visibility='default-visibility' is-defined='yes'/>
    <elf-symbol name='_ZNKSt4__n115__codecvt_utf16IDiLb0EE13do_max_lengthEv' type='func-type' binding='global-binding' visibility='default-visibility' is-defined='yes'/>
    <elf-symbol name='_ZNKSt4__n115__codecvt_utf16IDiLb0EE16do_always_noconvEv' type='func-type' binding='global-binding' visibility='default-visibility' is-defined='yes'/>
    <elf-symbol name='_ZNKSt4__n115__codecvt_utf16IDiLb0EE5do_inER11__mbstate_tPKcS5_RS5_PDiS7_RS7_' type='func-type' binding='global-binding' visibility='default-visibility' is-defined='yes'/>
    <elf-symbol name='_ZNKSt4__n115__codecvt_utf16IDiLb0EE6do_outER11__mbstate_tPKDiS5_RS5_PcS7_RS7_' type='func-type' binding='global-binding' visibility='default-visibility' is-defined='yes'/>
    <elf-symbol name='_ZNKSt4__n115__codecvt_utf16IDiLb0EE9do_lengthER11__mbstate_tPKcS5_j' type='func-type' binding='global-binding' visibility='default-visibility' is-defined='yes'/>
    <elf-symbol name='_ZNKSt4__n115__codecvt_utf16IDiLb1EE10do_unshiftER11__mbstate_tPcS4_RS4_' type='func-type' binding='global-binding' visibility='default-visibility' is-defined='yes'/>
    <elf-symbol name='_ZNKSt4__n115__codecvt_utf16IDiLb1EE11do_encodingEv' type='func-type' binding='global-binding' visibility='default-visibility' is-defined='yes'/>
    <elf-symbol name='_ZNKSt4__n115__codecvt_utf16IDiLb1EE13do_max_lengthEv' type='func-type' binding='global-binding' visibility='default-visibility' is-defined='yes'/>
    <elf-symbol name='_ZNKSt4__n115__codecvt_utf16IDiLb1EE16do_always_noconvEv' type='func-type' binding='global-binding' visibility='default-visibility' is-defined='yes'/>
    <elf-symbol name='_ZNKSt4__n115__codecvt_utf16IDiLb1EE5do_inER11__mbstate_tPKcS5_RS5_PDiS7_RS7_' type='func-type' binding='global-binding' visibility='default-visibility' is-defined='yes'/>
    <elf-symbol name='_ZNKSt4__n115__codecvt_utf16IDiLb1EE6do_outER11__mbstate_tPKDiS5_RS5_PcS7_RS7_' type='func-type' binding='global-binding' visibility='default-visibility' is-defined='yes'/>
    <elf-symbol name='_ZNKSt4__n115__codecvt_utf16IDiLb1EE9do_lengthER11__mbstate_tPKcS5_j' type='func-type' binding='global-binding' visibility='default-visibility' is-defined='yes'/>
    <elf-symbol name='_ZNKSt4__n115__codecvt_utf16IDsLb0EE10do_unshiftER11__mbstate_tPcS4_RS4_' type='func-type' binding='global-binding' visibility='default-visibility' is-defined='yes'/>
    <elf-symbol name='_ZNKSt4__n115__codecvt_utf16IDsLb0EE11do_encodingEv' type='func-type' binding='global-binding' visibility='default-visibility' is-defined='yes'/>
    <elf-symbol name='_ZNKSt4__n115__codecvt_utf16IDsLb0EE13do_max_lengthEv' type='func-type' binding='global-binding' visibility='default-visibility' is-defined='yes'/>
    <elf-symbol name='_ZNKSt4__n115__codecvt_utf16IDsLb0EE16do_always_noconvEv' type='func-type' binding='global-binding' visibility='default-visibility' is-defined='yes'/>
    <elf-symbol name='_ZNKSt4__n115__codecvt_utf16IDsLb0EE5do_inER11__mbstate_tPKcS5_RS5_PDsS7_RS7_' type='func-type' binding='global-binding' visibility='default-visibility' is-defined='yes'/>
    <elf-symbol name='_ZNKSt4__n115__codecvt_utf16IDsLb0EE6do_outER11__mbstate_tPKDsS5_RS5_PcS7_RS7_' type='func-type' binding='global-binding' visibility='default-visibility' is-defined='yes'/>
    <elf-symbol name='_ZNKSt4__n115__codecvt_utf16IDsLb0EE9do_lengthER11__mbstate_tPKcS5_j' type='func-type' binding='global-binding' visibility='default-visibility' is-defined='yes'/>
    <elf-symbol name='_ZNKSt4__n115__codecvt_utf16IDsLb1EE10do_unshiftER11__mbstate_tPcS4_RS4_' type='func-type' binding='global-binding' visibility='default-visibility' is-defined='yes'/>
    <elf-symbol name='_ZNKSt4__n115__codecvt_utf16IDsLb1EE11do_encodingEv' type='func-type' binding='global-binding' visibility='default-visibility' is-defined='yes'/>
    <elf-symbol name='_ZNKSt4__n115__codecvt_utf16IDsLb1EE13do_max_lengthEv' type='func-type' binding='global-binding' visibility='default-visibility' is-defined='yes'/>
    <elf-symbol name='_ZNKSt4__n115__codecvt_utf16IDsLb1EE16do_always_noconvEv' type='func-type' binding='global-binding' visibility='default-visibility' is-defined='yes'/>
    <elf-symbol name='_ZNKSt4__n115__codecvt_utf16IDsLb1EE5do_inER11__mbstate_tPKcS5_RS5_PDsS7_RS7_' type='func-type' binding='global-binding' visibility='default-visibility' is-defined='yes'/>
    <elf-symbol name='_ZNKSt4__n115__codecvt_utf16IDsLb1EE6do_outER11__mbstate_tPKDsS5_RS5_PcS7_RS7_' type='func-type' binding='global-binding' visibility='default-visibility' is-defined='yes'/>
    <elf-symbol name='_ZNKSt4__n115__codecvt_utf16IDsLb1EE9do_lengthER11__mbstate_tPKcS5_j' type='func-type' binding='global-binding' visibility='default-visibility' is-defined='yes'/>
    <elf-symbol name='_ZNKSt4__n115__codecvt_utf16IwLb0EE10do_unshiftER11__mbstate_tPcS4_RS4_' type='func-type' binding='global-binding' visibility='default-visibility' is-defined='yes'/>
    <elf-symbol name='_ZNKSt4__n115__codecvt_utf16IwLb0EE11do_encodingEv' type='func-type' binding='global-binding' visibility='default-visibility' is-defined='yes'/>
    <elf-symbol name='_ZNKSt4__n115__codecvt_utf16IwLb0EE13do_max_lengthEv' type='func-type' binding='global-binding' visibility='default-visibility' is-defined='yes'/>
    <elf-symbol name='_ZNKSt4__n115__codecvt_utf16IwLb0EE16do_always_noconvEv' type='func-type' binding='global-binding' visibility='default-visibility' is-defined='yes'/>
    <elf-symbol name='_ZNKSt4__n115__codecvt_utf16IwLb0EE5do_inER11__mbstate_tPKcS5_RS5_PwS7_RS7_' type='func-type' binding='global-binding' visibility='default-visibility' is-defined='yes'/>
    <elf-symbol name='_ZNKSt4__n115__codecvt_utf16IwLb0EE6do_outER11__mbstate_tPKwS5_RS5_PcS7_RS7_' type='func-type' binding='global-binding' visibility='default-visibility' is-defined='yes'/>
    <elf-symbol name='_ZNKSt4__n115__codecvt_utf16IwLb0EE9do_lengthER11__mbstate_tPKcS5_j' type='func-type' binding='global-binding' visibility='default-visibility' is-defined='yes'/>
    <elf-symbol name='_ZNKSt4__n115__codecvt_utf16IwLb1EE10do_unshiftER11__mbstate_tPcS4_RS4_' type='func-type' binding='global-binding' visibility='default-visibility' is-defined='yes'/>
    <elf-symbol name='_ZNKSt4__n115__codecvt_utf16IwLb1EE11do_encodingEv' type='func-type' binding='global-binding' visibility='default-visibility' is-defined='yes'/>
    <elf-symbol name='_ZNKSt4__n115__codecvt_utf16IwLb1EE13do_max_lengthEv' type='func-type' binding='global-binding' visibility='default-visibility' is-defined='yes'/>
    <elf-symbol name='_ZNKSt4__n115__codecvt_utf16IwLb1EE16do_always_noconvEv' type='func-type' binding='global-binding' visibility='default-visibility' is-defined='yes'/>
    <elf-symbol name='_ZNKSt4__n115__codecvt_utf16IwLb1EE5do_inER11__mbstate_tPKcS5_RS5_PwS7_RS7_' type='func-type' binding='global-binding' visibility='default-visibility' is-defined='yes'/>
    <elf-symbol name='_ZNKSt4__n115__codecvt_utf16IwLb1EE6do_outER11__mbstate_tPKwS5_RS5_PcS7_RS7_' type='func-type' binding='global-binding' visibility='default-visibility' is-defined='yes'/>
    <elf-symbol name='_ZNKSt4__n115__codecvt_utf16IwLb1EE9do_lengthER11__mbstate_tPKcS5_j' type='func-type' binding='global-binding' visibility='default-visibility' is-defined='yes'/>
    <elf-symbol name='_ZNKSt4__n115basic_streambufIcNS_11char_traitsIcEEE6getlocEv' type='func-type' binding='weak-binding' visibility='default-visibility' is-defined='yes'/>
    <elf-symbol name='_ZNKSt4__n115basic_streambufIwNS_11char_traitsIwEEE6getlocEv' type='func-type' binding='weak-binding' visibility='default-visibility' is-defined='yes'/>
    <elf-symbol name='_ZNKSt4__n115basic_stringbufIcNS_11char_traitsIcEENS_9allocatorIcEEE3strEv' type='func-type' binding='weak-binding' visibility='default-visibility' is-defined='yes'/>
    <elf-symbol name='_ZNKSt4__n115error_condition7messageEv' type='func-type' binding='global-binding' visibility='default-visibility' is-defined='yes'/>
    <elf-symbol name='_ZNKSt4__n117moneypunct_bynameIcLb0EE11do_groupingEv' type='func-type' binding='weak-binding' visibility='default-visibility' is-defined='yes'/>
    <elf-symbol name='_ZNKSt4__n117moneypunct_bynameIcLb0EE13do_neg_formatEv' type='func-type' binding='weak-binding' visibility='default-visibility' is-defined='yes'/>
    <elf-symbol name='_ZNKSt4__n117moneypunct_bynameIcLb0EE13do_pos_formatEv' type='func-type' binding='weak-binding' visibility='default-visibility' is-defined='yes'/>
    <elf-symbol name='_ZNKSt4__n117moneypunct_bynameIcLb0EE14do_curr_symbolEv' type='func-type' binding='weak-binding' visibility='default-visibility' is-defined='yes'/>
    <elf-symbol name='_ZNKSt4__n117moneypunct_bynameIcLb0EE14do_frac_digitsEv' type='func-type' binding='weak-binding' visibility='default-visibility' is-defined='yes'/>
    <elf-symbol name='_ZNKSt4__n117moneypunct_bynameIcLb0EE16do_decimal_pointEv' type='func-type' binding='weak-binding' visibility='default-visibility' is-defined='yes'/>
    <elf-symbol name='_ZNKSt4__n117moneypunct_bynameIcLb0EE16do_negative_signEv' type='func-type' binding='weak-binding' visibility='default-visibility' is-defined='yes'/>
    <elf-symbol name='_ZNKSt4__n117moneypunct_bynameIcLb0EE16do_positive_signEv' type='func-type' binding='weak-binding' visibility='default-visibility' is-defined='yes'/>
    <elf-symbol name='_ZNKSt4__n117moneypunct_bynameIcLb0EE16do_thousands_sepEv' type='func-type' binding='weak-binding' visibility='default-visibility' is-defined='yes'/>
    <elf-symbol name='_ZNKSt4__n117moneypunct_bynameIcLb1EE11do_groupingEv' type='func-type' binding='weak-binding' visibility='default-visibility' is-defined='yes'/>
    <elf-symbol name='_ZNKSt4__n117moneypunct_bynameIcLb1EE13do_neg_formatEv' type='func-type' binding='weak-binding' visibility='default-visibility' is-defined='yes'/>
    <elf-symbol name='_ZNKSt4__n117moneypunct_bynameIcLb1EE13do_pos_formatEv' type='func-type' binding='weak-binding' visibility='default-visibility' is-defined='yes'/>
    <elf-symbol name='_ZNKSt4__n117moneypunct_bynameIcLb1EE14do_curr_symbolEv' type='func-type' binding='weak-binding' visibility='default-visibility' is-defined='yes'/>
    <elf-symbol name='_ZNKSt4__n117moneypunct_bynameIcLb1EE14do_frac_digitsEv' type='func-type' binding='weak-binding' visibility='default-visibility' is-defined='yes'/>
    <elf-symbol name='_ZNKSt4__n117moneypunct_bynameIcLb1EE16do_decimal_pointEv' type='func-type' binding='weak-binding' visibility='default-visibility' is-defined='yes'/>
    <elf-symbol name='_ZNKSt4__n117moneypunct_bynameIcLb1EE16do_negative_signEv' type='func-type' binding='weak-binding' visibility='default-visibility' is-defined='yes'/>
    <elf-symbol name='_ZNKSt4__n117moneypunct_bynameIcLb1EE16do_positive_signEv' type='func-type' binding='weak-binding' visibility='default-visibility' is-defined='yes'/>
    <elf-symbol name='_ZNKSt4__n117moneypunct_bynameIcLb1EE16do_thousands_sepEv' type='func-type' binding='weak-binding' visibility='default-visibility' is-defined='yes'/>
    <elf-symbol name='_ZNKSt4__n117moneypunct_bynameIwLb0EE11do_groupingEv' type='func-type' binding='weak-binding' visibility='default-visibility' is-defined='yes'/>
    <elf-symbol name='_ZNKSt4__n117moneypunct_bynameIwLb0EE13do_neg_formatEv' type='func-type' binding='weak-binding' visibility='default-visibility' is-defined='yes'/>
    <elf-symbol name='_ZNKSt4__n117moneypunct_bynameIwLb0EE13do_pos_formatEv' type='func-type' binding='weak-binding' visibility='default-visibility' is-defined='yes'/>
    <elf-symbol name='_ZNKSt4__n117moneypunct_bynameIwLb0EE14do_curr_symbolEv' type='func-type' binding='weak-binding' visibility='default-visibility' is-defined='yes'/>
    <elf-symbol name='_ZNKSt4__n117moneypunct_bynameIwLb0EE14do_frac_digitsEv' type='func-type' binding='weak-binding' visibility='default-visibility' is-defined='yes'/>
    <elf-symbol name='_ZNKSt4__n117moneypunct_bynameIwLb0EE16do_decimal_pointEv' type='func-type' binding='weak-binding' visibility='default-visibility' is-defined='yes'/>
    <elf-symbol name='_ZNKSt4__n117moneypunct_bynameIwLb0EE16do_negative_signEv' type='func-type' binding='weak-binding' visibility='default-visibility' is-defined='yes'/>
    <elf-symbol name='_ZNKSt4__n117moneypunct_bynameIwLb0EE16do_positive_signEv' type='func-type' binding='weak-binding' visibility='default-visibility' is-defined='yes'/>
    <elf-symbol name='_ZNKSt4__n117moneypunct_bynameIwLb0EE16do_thousands_sepEv' type='func-type' binding='weak-binding' visibility='default-visibility' is-defined='yes'/>
    <elf-symbol name='_ZNKSt4__n117moneypunct_bynameIwLb1EE11do_groupingEv' type='func-type' binding='weak-binding' visibility='default-visibility' is-defined='yes'/>
    <elf-symbol name='_ZNKSt4__n117moneypunct_bynameIwLb1EE13do_neg_formatEv' type='func-type' binding='weak-binding' visibility='default-visibility' is-defined='yes'/>
    <elf-symbol name='_ZNKSt4__n117moneypunct_bynameIwLb1EE13do_pos_formatEv' type='func-type' binding='weak-binding' visibility='default-visibility' is-defined='yes'/>
    <elf-symbol name='_ZNKSt4__n117moneypunct_bynameIwLb1EE14do_curr_symbolEv' type='func-type' binding='weak-binding' visibility='default-visibility' is-defined='yes'/>
    <elf-symbol name='_ZNKSt4__n117moneypunct_bynameIwLb1EE14do_frac_digitsEv' type='func-type' binding='weak-binding' visibility='default-visibility' is-defined='yes'/>
    <elf-symbol name='_ZNKSt4__n117moneypunct_bynameIwLb1EE16do_decimal_pointEv' type='func-type' binding='weak-binding' visibility='default-visibility' is-defined='yes'/>
    <elf-symbol name='_ZNKSt4__n117moneypunct_bynameIwLb1EE16do_negative_signEv' type='func-type' binding='weak-binding' visibility='default-visibility' is-defined='yes'/>
    <elf-symbol name='_ZNKSt4__n117moneypunct_bynameIwLb1EE16do_positive_signEv' type='func-type' binding='weak-binding' visibility='default-visibility' is-defined='yes'/>
    <elf-symbol name='_ZNKSt4__n117moneypunct_bynameIwLb1EE16do_thousands_sepEv' type='func-type' binding='weak-binding' visibility='default-visibility' is-defined='yes'/>
    <elf-symbol name='_ZNKSt4__n118__time_get_storageIcE15__do_date_orderEv' type='func-type' binding='global-binding' visibility='default-visibility' is-defined='yes'/>
    <elf-symbol name='_ZNKSt4__n118__time_get_storageIwE15__do_date_orderEv' type='func-type' binding='global-binding' visibility='default-visibility' is-defined='yes'/>
    <elf-symbol name='_ZNKSt4__n119__shared_weak_count13__get_deleterERKSt9type_info' type='func-type' binding='global-binding' visibility='default-visibility' is-defined='yes'/>
    <elf-symbol name='_ZNKSt4__n120__codecvt_utf8_utf16IDiE10do_unshiftER11__mbstate_tPcS4_RS4_' type='func-type' binding='global-binding' visibility='default-visibility' is-defined='yes'/>
    <elf-symbol name='_ZNKSt4__n120__codecvt_utf8_utf16IDiE11do_encodingEv' type='func-type' binding='global-binding' visibility='default-visibility' is-defined='yes'/>
    <elf-symbol name='_ZNKSt4__n120__codecvt_utf8_utf16IDiE13do_max_lengthEv' type='func-type' binding='global-binding' visibility='default-visibility' is-defined='yes'/>
    <elf-symbol name='_ZNKSt4__n120__codecvt_utf8_utf16IDiE16do_always_noconvEv' type='func-type' binding='global-binding' visibility='default-visibility' is-defined='yes'/>
    <elf-symbol name='_ZNKSt4__n120__codecvt_utf8_utf16IDiE5do_inER11__mbstate_tPKcS5_RS5_PDiS7_RS7_' type='func-type' binding='global-binding' visibility='default-visibility' is-defined='yes'/>
    <elf-symbol name='_ZNKSt4__n120__codecvt_utf8_utf16IDiE6do_outER11__mbstate_tPKDiS5_RS5_PcS7_RS7_' type='func-type' binding='global-binding' visibility='default-visibility' is-defined='yes'/>
    <elf-symbol name='_ZNKSt4__n120__codecvt_utf8_utf16IDiE9do_lengthER11__mbstate_tPKcS5_j' type='func-type' binding='global-binding' visibility='default-visibility' is-defined='yes'/>
    <elf-symbol name='_ZNKSt4__n120__codecvt_utf8_utf16IDsE10do_unshiftER11__mbstate_tPcS4_RS4_' type='func-type' binding='global-binding' visibility='default-visibility' is-defined='yes'/>
    <elf-symbol name='_ZNKSt4__n120__codecvt_utf8_utf16IDsE11do_encodingEv' type='func-type' binding='global-binding' visibility='default-visibility' is-defined='yes'/>
    <elf-symbol name='_ZNKSt4__n120__codecvt_utf8_utf16IDsE13do_max_lengthEv' type='func-type' binding='global-binding' visibility='default-visibility' is-defined='yes'/>
    <elf-symbol name='_ZNKSt4__n120__codecvt_utf8_utf16IDsE16do_always_noconvEv' type='func-type' binding='global-binding' visibility='default-visibility' is-defined='yes'/>
    <elf-symbol name='_ZNKSt4__n120__codecvt_utf8_utf16IDsE5do_inER11__mbstate_tPKcS5_RS5_PDsS7_RS7_' type='func-type' binding='global-binding' visibility='default-visibility' is-defined='yes'/>
    <elf-symbol name='_ZNKSt4__n120__codecvt_utf8_utf16IDsE6do_outER11__mbstate_tPKDsS5_RS5_PcS7_RS7_' type='func-type' binding='global-binding' visibility='default-visibility' is-defined='yes'/>
    <elf-symbol name='_ZNKSt4__n120__codecvt_utf8_utf16IDsE9do_lengthER11__mbstate_tPKcS5_j' type='func-type' binding='global-binding' visibility='default-visibility' is-defined='yes'/>
    <elf-symbol name='_ZNKSt4__n120__codecvt_utf8_utf16IwE10do_unshiftER11__mbstate_tPcS4_RS4_' type='func-type' binding='global-binding' visibility='default-visibility' is-defined='yes'/>
    <elf-symbol name='_ZNKSt4__n120__codecvt_utf8_utf16IwE11do_encodingEv' type='func-type' binding='global-binding' visibility='default-visibility' is-defined='yes'/>
    <elf-symbol name='_ZNKSt4__n120__codecvt_utf8_utf16IwE13do_max_lengthEv' type='func-type' binding='global-binding' visibility='default-visibility' is-defined='yes'/>
    <elf-symbol name='_ZNKSt4__n120__codecvt_utf8_utf16IwE16do_always_noconvEv' type='func-type' binding='global-binding' visibility='default-visibility' is-defined='yes'/>
    <elf-symbol name='_ZNKSt4__n120__codecvt_utf8_utf16IwE5do_inER11__mbstate_tPKcS5_RS5_PwS7_RS7_' type='func-type' binding='global-binding' visibility='default-visibility' is-defined='yes'/>
    <elf-symbol name='_ZNKSt4__n120__codecvt_utf8_utf16IwE6do_outER11__mbstate_tPKwS5_RS5_PcS7_RS7_' type='func-type' binding='global-binding' visibility='default-visibility' is-defined='yes'/>
    <elf-symbol name='_ZNKSt4__n120__codecvt_utf8_utf16IwE9do_lengthER11__mbstate_tPKcS5_j' type='func-type' binding='global-binding' visibility='default-visibility' is-defined='yes'/>
    <elf-symbol name='_ZNKSt4__n120__time_get_c_storageIcE3__XEv' type='func-type' binding='global-binding' visibility='default-visibility' is-defined='yes'/>
    <elf-symbol name='_ZNKSt4__n120__time_get_c_storageIcE3__cEv' type='func-type' binding='global-binding' visibility='default-visibility' is-defined='yes'/>
    <elf-symbol name='_ZNKSt4__n120__time_get_c_storageIcE3__rEv' type='func-type' binding='global-binding' visibility='default-visibility' is-defined='yes'/>
    <elf-symbol name='_ZNKSt4__n120__time_get_c_storageIcE3__xEv' type='func-type' binding='global-binding' visibility='default-visibility' is-defined='yes'/>
    <elf-symbol name='_ZNKSt4__n120__time_get_c_storageIcE7__am_pmEv' type='func-type' binding='global-binding' visibility='default-visibility' is-defined='yes'/>
    <elf-symbol name='_ZNKSt4__n120__time_get_c_storageIcE7__weeksEv' type='func-type' binding='global-binding' visibility='default-visibility' is-defined='yes'/>
    <elf-symbol name='_ZNKSt4__n120__time_get_c_storageIcE8__monthsEv' type='func-type' binding='global-binding' visibility='default-visibility' is-defined='yes'/>
    <elf-symbol name='_ZNKSt4__n120__time_get_c_storageIwE3__XEv' type='func-type' binding='global-binding' visibility='default-visibility' is-defined='yes'/>
    <elf-symbol name='_ZNKSt4__n120__time_get_c_storageIwE3__cEv' type='func-type' binding='global-binding' visibility='default-visibility' is-defined='yes'/>
    <elf-symbol name='_ZNKSt4__n120__time_get_c_storageIwE3__rEv' type='func-type' binding='global-binding' visibility='default-visibility' is-defined='yes'/>
    <elf-symbol name='_ZNKSt4__n120__time_get_c_storageIwE3__xEv' type='func-type' binding='global-binding' visibility='default-visibility' is-defined='yes'/>
    <elf-symbol name='_ZNKSt4__n120__time_get_c_storageIwE7__am_pmEv' type='func-type' binding='global-binding' visibility='default-visibility' is-defined='yes'/>
    <elf-symbol name='_ZNKSt4__n120__time_get_c_storageIwE7__weeksEv' type='func-type' binding='global-binding' visibility='default-visibility' is-defined='yes'/>
    <elf-symbol name='_ZNKSt4__n120__time_get_c_storageIwE8__monthsEv' type='func-type' binding='global-binding' visibility='default-visibility' is-defined='yes'/>
    <elf-symbol name='_ZNKSt4__n120__vector_base_commonILb1EE20__throw_length_errorEv' type='func-type' binding='global-binding' visibility='default-visibility' is-defined='yes'/>
    <elf-symbol name='_ZNKSt4__n120__vector_base_commonILb1EE20__throw_out_of_rangeEv' type='func-type' binding='global-binding' visibility='default-visibility' is-defined='yes'/>
    <elf-symbol name='_ZNKSt4__n121__basic_string_commonILb1EE20__throw_length_errorEv' type='func-type' binding='global-binding' visibility='default-visibility' is-defined='yes'/>
    <elf-symbol name='_ZNKSt4__n121__basic_string_commonILb1EE20__throw_out_of_rangeEv' type='func-type' binding='global-binding' visibility='default-visibility' is-defined='yes'/>
    <elf-symbol name='_ZNKSt4__n123__match_any_but_newlineIcE6__execERNS_7__stateIcEE' type='func-type' binding='global-binding' visibility='default-visibility' is-defined='yes'/>
    <elf-symbol name='_ZNKSt4__n123__match_any_but_newlineIwE6__execERNS_7__stateIwEE' type='func-type' binding='global-binding' visibility='default-visibility' is-defined='yes'/>
    <elf-symbol name='_ZNKSt4__n14__fs10filesystem18directory_iterator13__dereferenceEv' type='func-type' binding='global-binding' visibility='default-visibility' is-defined='yes'/>
    <elf-symbol name='_ZNKSt4__n14__fs10filesystem28recursive_directory_iterator13__dereferenceEv' type='func-type' binding='global-binding' visibility='default-visibility' is-defined='yes'/>
    <elf-symbol name='_ZNKSt4__n14__fs10filesystem28recursive_directory_iterator5depthEv' type='func-type' binding='global-binding' visibility='default-visibility' is-defined='yes'/>
    <elf-symbol name='_ZNKSt4__n14__fs10filesystem28recursive_directory_iterator7optionsEv' type='func-type' binding='global-binding' visibility='default-visibility' is-defined='yes'/>
    <elf-symbol name='_ZNKSt4__n14__fs10filesystem4path10__filenameEv' type='func-type' binding='global-binding' visibility='default-visibility' is-defined='yes'/>
    <elf-symbol name='_ZNKSt4__n14__fs10filesystem4path11__extensionEv' type='func-type' binding='global-binding' visibility='default-visibility' is-defined='yes'/>
    <elf-symbol name='_ZNKSt4__n14__fs10filesystem4path11__root_nameEv' type='func-type' binding='global-binding' visibility='default-visibility' is-defined='yes'/>
    <elf-symbol name='_ZNKSt4__n14__fs10filesystem4path13__parent_pathEv' type='func-type' binding='global-binding' visibility='default-visibility' is-defined='yes'/>
    <elf-symbol name='_ZNKSt4__n14__fs10filesystem4path15__relative_pathEv' type='func-type' binding='global-binding' visibility='default-visibility' is-defined='yes'/>
    <elf-symbol name='_ZNKSt4__n14__fs10filesystem4path15__root_path_rawEv' type='func-type' binding='global-binding' visibility='default-visibility' is-defined='yes'/>
    <elf-symbol name='_ZNKSt4__n14__fs10filesystem4path16__root_directoryEv' type='func-type' binding='global-binding' visibility='default-visibility' is-defined='yes'/>
    <elf-symbol name='_ZNKSt4__n14__fs10filesystem4path16lexically_normalEv' type='func-type' binding='global-binding' visibility='default-visibility' is-defined='yes'/>
    <elf-symbol name='_ZNKSt4__n14__fs10filesystem4path18lexically_relativeERKS2_' type='func-type' binding='global-binding' visibility='default-visibility' is-defined='yes'/>
    <elf-symbol name='_ZNKSt4__n14__fs10filesystem4path3endEv' type='func-type' binding='global-binding' visibility='default-visibility' is-defined='yes'/>
    <elf-symbol name='_ZNKSt4__n14__fs10filesystem4path5beginEv' type='func-type' binding='global-binding' visibility='default-visibility' is-defined='yes'/>
    <elf-symbol name='_ZNKSt4__n14__fs10filesystem4path6__stemEv' type='func-type' binding='global-binding' visibility='default-visibility' is-defined='yes'/>
    <elf-symbol name='_ZNKSt4__n14__fs10filesystem4path9__compareENS_17basic_string_viewIcNS_11char_traitsIcEEEE' type='func-type' binding='global-binding' visibility='default-visibility' is-defined='yes'/>
    <elf-symbol name='_ZNKSt4__n15ctypeIcE10do_tolowerEPcPKc' type='func-type' binding='global-binding' visibility='default-visibility' is-defined='yes'/>
    <elf-symbol name='_ZNKSt4__n15ctypeIcE10do_tolowerEc' type='func-type' binding='global-binding' visibility='default-visibility' is-defined='yes'/>
    <elf-symbol name='_ZNKSt4__n15ctypeIcE10do_toupperEPcPKc' type='func-type' binding='global-binding' visibility='default-visibility' is-defined='yes'/>
    <elf-symbol name='_ZNKSt4__n15ctypeIcE10do_toupperEc' type='func-type' binding='global-binding' visibility='default-visibility' is-defined='yes'/>
    <elf-symbol name='_ZNKSt4__n15ctypeIcE8do_widenEPKcS3_Pc' type='func-type' binding='global-binding' visibility='default-visibility' is-defined='yes'/>
    <elf-symbol name='_ZNKSt4__n15ctypeIcE8do_widenEc' type='func-type' binding='global-binding' visibility='default-visibility' is-defined='yes'/>
    <elf-symbol name='_ZNKSt4__n15ctypeIcE9do_narrowEPKcS3_cPc' type='func-type' binding='global-binding' visibility='default-visibility' is-defined='yes'/>
    <elf-symbol name='_ZNKSt4__n15ctypeIcE9do_narrowEcc' type='func-type' binding='global-binding' visibility='default-visibility' is-defined='yes'/>
    <elf-symbol name='_ZNKSt4__n15ctypeIwE10do_scan_isEmPKwS3_' type='func-type' binding='global-binding' visibility='default-visibility' is-defined='yes'/>
    <elf-symbol name='_ZNKSt4__n15ctypeIwE10do_tolowerEPwPKw' type='func-type' binding='global-binding' visibility='default-visibility' is-defined='yes'/>
    <elf-symbol name='_ZNKSt4__n15ctypeIwE10do_tolowerEw' type='func-type' binding='global-binding' visibility='default-visibility' is-defined='yes'/>
    <elf-symbol name='_ZNKSt4__n15ctypeIwE10do_toupperEPwPKw' type='func-type' binding='global-binding' visibility='default-visibility' is-defined='yes'/>
    <elf-symbol name='_ZNKSt4__n15ctypeIwE10do_toupperEw' type='func-type' binding='global-binding' visibility='default-visibility' is-defined='yes'/>
    <elf-symbol name='_ZNKSt4__n15ctypeIwE11do_scan_notEmPKwS3_' type='func-type' binding='global-binding' visibility='default-visibility' is-defined='yes'/>
    <elf-symbol name='_ZNKSt4__n15ctypeIwE5do_isEPKwS3_Pm' type='func-type' binding='global-binding' visibility='default-visibility' is-defined='yes'/>
    <elf-symbol name='_ZNKSt4__n15ctypeIwE5do_isEmw' type='func-type' binding='global-binding' visibility='default-visibility' is-defined='yes'/>
    <elf-symbol name='_ZNKSt4__n15ctypeIwE8do_widenEPKcS3_Pw' type='func-type' binding='global-binding' visibility='default-visibility' is-defined='yes'/>
    <elf-symbol name='_ZNKSt4__n15ctypeIwE8do_widenEc' type='func-type' binding='global-binding' visibility='default-visibility' is-defined='yes'/>
    <elf-symbol name='_ZNKSt4__n15ctypeIwE9do_narrowEPKwS3_cPc' type='func-type' binding='global-binding' visibility='default-visibility' is-defined='yes'/>
    <elf-symbol name='_ZNKSt4__n15ctypeIwE9do_narrowEwc' type='func-type' binding='global-binding' visibility='default-visibility' is-defined='yes'/>
    <elf-symbol name='_ZNKSt4__n16locale4nameEv' type='func-type' binding='global-binding' visibility='default-visibility' is-defined='yes'/>
    <elf-symbol name='_ZNKSt4__n16locale9has_facetERNS0_2idE' type='func-type' binding='global-binding' visibility='default-visibility' is-defined='yes'/>
    <elf-symbol name='_ZNKSt4__n16locale9use_facetERNS0_2idE' type='func-type' binding='global-binding' visibility='default-visibility' is-defined='yes'/>
    <elf-symbol name='_ZNKSt4__n16localeeqERKS0_' type='func-type' binding='global-binding' visibility='default-visibility' is-defined='yes'/>
    <elf-symbol name='_ZNKSt4__n17codecvtIDiDu11__mbstate_tE10do_unshiftERS1_PDuS4_RS4_' type='func-type' binding='global-binding' visibility='default-visibility' is-defined='yes'/>
    <elf-symbol name='_ZNKSt4__n17codecvtIDiDu11__mbstate_tE11do_encodingEv' type='func-type' binding='global-binding' visibility='default-visibility' is-defined='yes'/>
    <elf-symbol name='_ZNKSt4__n17codecvtIDiDu11__mbstate_tE13do_max_lengthEv' type='func-type' binding='global-binding' visibility='default-visibility' is-defined='yes'/>
    <elf-symbol name='_ZNKSt4__n17codecvtIDiDu11__mbstate_tE16do_always_noconvEv' type='func-type' binding='global-binding' visibility='default-visibility' is-defined='yes'/>
    <elf-symbol name='_ZNKSt4__n17codecvtIDiDu11__mbstate_tE5do_inERS1_PKDuS5_RS5_PDiS7_RS7_' type='func-type' binding='global-binding' visibility='default-visibility' is-defined='yes'/>
    <elf-symbol name='_ZNKSt4__n17codecvtIDiDu11__mbstate_tE6do_outERS1_PKDiS5_RS5_PDuS7_RS7_' type='func-type' binding='global-binding' visibility='default-visibility' is-defined='yes'/>
    <elf-symbol name='_ZNKSt4__n17codecvtIDiDu11__mbstate_tE9do_lengthERS1_PKDuS5_j' type='func-type' binding='global-binding' visibility='default-visibility' is-defined='yes'/>
    <elf-symbol name='_ZNKSt4__n17codecvtIDic11__mbstate_tE10do_unshiftERS1_PcS4_RS4_' type='func-type' binding='global-binding' visibility='default-visibility' is-defined='yes'/>
    <elf-symbol name='_ZNKSt4__n17codecvtIDic11__mbstate_tE11do_encodingEv' type='func-type' binding='global-binding' visibility='default-visibility' is-defined='yes'/>
    <elf-symbol name='_ZNKSt4__n17codecvtIDic11__mbstate_tE13do_max_lengthEv' type='func-type' binding='global-binding' visibility='default-visibility' is-defined='yes'/>
    <elf-symbol name='_ZNKSt4__n17codecvtIDic11__mbstate_tE16do_always_noconvEv' type='func-type' binding='global-binding' visibility='default-visibility' is-defined='yes'/>
    <elf-symbol name='_ZNKSt4__n17codecvtIDic11__mbstate_tE5do_inERS1_PKcS5_RS5_PDiS7_RS7_' type='func-type' binding='global-binding' visibility='default-visibility' is-defined='yes'/>
    <elf-symbol name='_ZNKSt4__n17codecvtIDic11__mbstate_tE6do_outERS1_PKDiS5_RS5_PcS7_RS7_' type='func-type' binding='global-binding' visibility='default-visibility' is-defined='yes'/>
    <elf-symbol name='_ZNKSt4__n17codecvtIDic11__mbstate_tE9do_lengthERS1_PKcS5_j' type='func-type' binding='global-binding' visibility='default-visibility' is-defined='yes'/>
    <elf-symbol name='_ZNKSt4__n17codecvtIDsDu11__mbstate_tE10do_unshiftERS1_PDuS4_RS4_' type='func-type' binding='global-binding' visibility='default-visibility' is-defined='yes'/>
    <elf-symbol name='_ZNKSt4__n17codecvtIDsDu11__mbstate_tE11do_encodingEv' type='func-type' binding='global-binding' visibility='default-visibility' is-defined='yes'/>
    <elf-symbol name='_ZNKSt4__n17codecvtIDsDu11__mbstate_tE13do_max_lengthEv' type='func-type' binding='global-binding' visibility='default-visibility' is-defined='yes'/>
    <elf-symbol name='_ZNKSt4__n17codecvtIDsDu11__mbstate_tE16do_always_noconvEv' type='func-type' binding='global-binding' visibility='default-visibility' is-defined='yes'/>
    <elf-symbol name='_ZNKSt4__n17codecvtIDsDu11__mbstate_tE5do_inERS1_PKDuS5_RS5_PDsS7_RS7_' type='func-type' binding='global-binding' visibility='default-visibility' is-defined='yes'/>
    <elf-symbol name='_ZNKSt4__n17codecvtIDsDu11__mbstate_tE6do_outERS1_PKDsS5_RS5_PDuS7_RS7_' type='func-type' binding='global-binding' visibility='default-visibility' is-defined='yes'/>
    <elf-symbol name='_ZNKSt4__n17codecvtIDsDu11__mbstate_tE9do_lengthERS1_PKDuS5_j' type='func-type' binding='global-binding' visibility='default-visibility' is-defined='yes'/>
    <elf-symbol name='_ZNKSt4__n17codecvtIDsc11__mbstate_tE10do_unshiftERS1_PcS4_RS4_' type='func-type' binding='global-binding' visibility='default-visibility' is-defined='yes'/>
    <elf-symbol name='_ZNKSt4__n17codecvtIDsc11__mbstate_tE11do_encodingEv' type='func-type' binding='global-binding' visibility='default-visibility' is-defined='yes'/>
    <elf-symbol name='_ZNKSt4__n17codecvtIDsc11__mbstate_tE13do_max_lengthEv' type='func-type' binding='global-binding' visibility='default-visibility' is-defined='yes'/>
    <elf-symbol name='_ZNKSt4__n17codecvtIDsc11__mbstate_tE16do_always_noconvEv' type='func-type' binding='global-binding' visibility='default-visibility' is-defined='yes'/>
    <elf-symbol name='_ZNKSt4__n17codecvtIDsc11__mbstate_tE5do_inERS1_PKcS5_RS5_PDsS7_RS7_' type='func-type' binding='global-binding' visibility='default-visibility' is-defined='yes'/>
    <elf-symbol name='_ZNKSt4__n17codecvtIDsc11__mbstate_tE6do_outERS1_PKDsS5_RS5_PcS7_RS7_' type='func-type' binding='global-binding' visibility='default-visibility' is-defined='yes'/>
    <elf-symbol name='_ZNKSt4__n17codecvtIDsc11__mbstate_tE9do_lengthERS1_PKcS5_j' type='func-type' binding='global-binding' visibility='default-visibility' is-defined='yes'/>
    <elf-symbol name='_ZNKSt4__n17codecvtIcc11__mbstate_tE10do_unshiftERS1_PcS4_RS4_' type='func-type' binding='global-binding' visibility='default-visibility' is-defined='yes'/>
    <elf-symbol name='_ZNKSt4__n17codecvtIcc11__mbstate_tE11do_encodingEv' type='func-type' binding='global-binding' visibility='default-visibility' is-defined='yes'/>
    <elf-symbol name='_ZNKSt4__n17codecvtIcc11__mbstate_tE13do_max_lengthEv' type='func-type' binding='global-binding' visibility='default-visibility' is-defined='yes'/>
    <elf-symbol name='_ZNKSt4__n17codecvtIcc11__mbstate_tE16do_always_noconvEv' type='func-type' binding='global-binding' visibility='default-visibility' is-defined='yes'/>
    <elf-symbol name='_ZNKSt4__n17codecvtIcc11__mbstate_tE5do_inERS1_PKcS5_RS5_PcS7_RS7_' type='func-type' binding='global-binding' visibility='default-visibility' is-defined='yes'/>
    <elf-symbol name='_ZNKSt4__n17codecvtIcc11__mbstate_tE6do_outERS1_PKcS5_RS5_PcS7_RS7_' type='func-type' binding='global-binding' visibility='default-visibility' is-defined='yes'/>
    <elf-symbol name='_ZNKSt4__n17codecvtIcc11__mbstate_tE9do_lengthERS1_PKcS5_j' type='func-type' binding='global-binding' visibility='default-visibility' is-defined='yes'/>
    <elf-symbol name='_ZNKSt4__n17codecvtIwc11__mbstate_tE10do_unshiftERS1_PcS4_RS4_' type='func-type' binding='global-binding' visibility='default-visibility' is-defined='yes'/>
    <elf-symbol name='_ZNKSt4__n17codecvtIwc11__mbstate_tE11do_encodingEv' type='func-type' binding='global-binding' visibility='default-visibility' is-defined='yes'/>
    <elf-symbol name='_ZNKSt4__n17codecvtIwc11__mbstate_tE13do_max_lengthEv' type='func-type' binding='global-binding' visibility='default-visibility' is-defined='yes'/>
    <elf-symbol name='_ZNKSt4__n17codecvtIwc11__mbstate_tE16do_always_noconvEv' type='func-type' binding='global-binding' visibility='default-visibility' is-defined='yes'/>
    <elf-symbol name='_ZNKSt4__n17codecvtIwc11__mbstate_tE5do_inERS1_PKcS5_RS5_PwS7_RS7_' type='func-type' binding='global-binding' visibility='default-visibility' is-defined='yes'/>
    <elf-symbol name='_ZNKSt4__n17codecvtIwc11__mbstate_tE6do_outERS1_PKwS5_RS5_PcS7_RS7_' type='func-type' binding='global-binding' visibility='default-visibility' is-defined='yes'/>
    <elf-symbol name='_ZNKSt4__n17codecvtIwc11__mbstate_tE9do_lengthERS1_PKcS5_j' type='func-type' binding='global-binding' visibility='default-visibility' is-defined='yes'/>
    <elf-symbol name='_ZNKSt4__n17collateIcE10do_compareEPKcS3_S3_S3_' type='func-type' binding='weak-binding' visibility='default-visibility' is-defined='yes'/>
    <elf-symbol name='_ZNKSt4__n17collateIcE12do_transformEPKcS3_' type='func-type' binding='weak-binding' visibility='default-visibility' is-defined='yes'/>
    <elf-symbol name='_ZNKSt4__n17collateIcE7do_hashEPKcS3_' type='func-type' binding='weak-binding' visibility='default-visibility' is-defined='yes'/>
    <elf-symbol name='_ZNKSt4__n17collateIwE10do_compareEPKwS3_S3_S3_' type='func-type' binding='weak-binding' visibility='default-visibility' is-defined='yes'/>
    <elf-symbol name='_ZNKSt4__n17collateIwE12do_transformEPKwS3_' type='func-type' binding='weak-binding' visibility='default-visibility' is-defined='yes'/>
    <elf-symbol name='_ZNKSt4__n17collateIwE7do_hashEPKwS3_' type='func-type' binding='weak-binding' visibility='default-visibility' is-defined='yes'/>
    <elf-symbol name='_ZNKSt4__n17num_getIcNS_19istreambuf_iteratorIcNS_11char_traitsIcEEEEE6do_getES4_S4_RNS_8ios_baseERjRPv' type='func-type' binding='weak-binding' visibility='default-visibility' is-defined='yes'/>
    <elf-symbol name='_ZNKSt4__n17num_getIcNS_19istreambuf_iteratorIcNS_11char_traitsIcEEEEE6do_getES4_S4_RNS_8ios_baseERjRb' type='func-type' binding='weak-binding' visibility='default-visibility' is-defined='yes'/>
    <elf-symbol name='_ZNKSt4__n17num_getIcNS_19istreambuf_iteratorIcNS_11char_traitsIcEEEEE6do_getES4_S4_RNS_8ios_baseERjRd' type='func-type' binding='weak-binding' visibility='default-visibility' is-defined='yes'/>
    <elf-symbol name='_ZNKSt4__n17num_getIcNS_19istreambuf_iteratorIcNS_11char_traitsIcEEEEE6do_getES4_S4_RNS_8ios_baseERjRe' type='func-type' binding='weak-binding' visibility='default-visibility' is-defined='yes'/>
    <elf-symbol name='_ZNKSt4__n17num_getIcNS_19istreambuf_iteratorIcNS_11char_traitsIcEEEEE6do_getES4_S4_RNS_8ios_baseERjRf' type='func-type' binding='weak-binding' visibility='default-visibility' is-defined='yes'/>
    <elf-symbol name='_ZNKSt4__n17num_getIcNS_19istreambuf_iteratorIcNS_11char_traitsIcEEEEE6do_getES4_S4_RNS_8ios_baseERjRl' type='func-type' binding='weak-binding' visibility='default-visibility' is-defined='yes'/>
    <elf-symbol name='_ZNKSt4__n17num_getIcNS_19istreambuf_iteratorIcNS_11char_traitsIcEEEEE6do_getES4_S4_RNS_8ios_baseERjRm' type='func-type' binding='weak-binding' visibility='default-visibility' is-defined='yes'/>
    <elf-symbol name='_ZNKSt4__n17num_getIcNS_19istreambuf_iteratorIcNS_11char_traitsIcEEEEE6do_getES4_S4_RNS_8ios_baseERjRt' type='func-type' binding='weak-binding' visibility='default-visibility' is-defined='yes'/>
    <elf-symbol name='_ZNKSt4__n17num_getIcNS_19istreambuf_iteratorIcNS_11char_traitsIcEEEEE6do_getES4_S4_RNS_8ios_baseERjRx' type='func-type' binding='weak-binding' visibility='default-visibility' is-defined='yes'/>
    <elf-symbol name='_ZNKSt4__n17num_getIcNS_19istreambuf_iteratorIcNS_11char_traitsIcEEEEE6do_getES4_S4_RNS_8ios_baseERjRy' type='func-type' binding='weak-binding' visibility='default-visibility' is-defined='yes'/>
    <elf-symbol name='_ZNKSt4__n17num_getIcNS_19istreambuf_iteratorIcNS_11char_traitsIcEEEEE6do_getES4_S4_RNS_8ios_baseERjS8_' type='func-type' binding='weak-binding' visibility='default-visibility' is-defined='yes'/>
    <elf-symbol name='_ZNKSt4__n17num_getIwNS_19istreambuf_iteratorIwNS_11char_traitsIwEEEEE6do_getES4_S4_RNS_8ios_baseERjRPv' type='func-type' binding='weak-binding' visibility='default-visibility' is-defined='yes'/>
    <elf-symbol name='_ZNKSt4__n17num_getIwNS_19istreambuf_iteratorIwNS_11char_traitsIwEEEEE6do_getES4_S4_RNS_8ios_baseERjRb' type='func-type' binding='weak-binding' visibility='default-visibility' is-defined='yes'/>
    <elf-symbol name='_ZNKSt4__n17num_getIwNS_19istreambuf_iteratorIwNS_11char_traitsIwEEEEE6do_getES4_S4_RNS_8ios_baseERjRd' type='func-type' binding='weak-binding' visibility='default-visibility' is-defined='yes'/>
    <elf-symbol name='_ZNKSt4__n17num_getIwNS_19istreambuf_iteratorIwNS_11char_traitsIwEEEEE6do_getES4_S4_RNS_8ios_baseERjRe' type='func-type' binding='weak-binding' visibility='default-visibility' is-defined='yes'/>
    <elf-symbol name='_ZNKSt4__n17num_getIwNS_19istreambuf_iteratorIwNS_11char_traitsIwEEEEE6do_getES4_S4_RNS_8ios_baseERjRf' type='func-type' binding='weak-binding' visibility='default-visibility' is-defined='yes'/>
    <elf-symbol name='_ZNKSt4__n17num_getIwNS_19istreambuf_iteratorIwNS_11char_traitsIwEEEEE6do_getES4_S4_RNS_8ios_baseERjRl' type='func-type' binding='weak-binding' visibility='default-visibility' is-defined='yes'/>
    <elf-symbol name='_ZNKSt4__n17num_getIwNS_19istreambuf_iteratorIwNS_11char_traitsIwEEEEE6do_getES4_S4_RNS_8ios_baseERjRm' type='func-type' binding='weak-binding' visibility='default-visibility' is-defined='yes'/>
    <elf-symbol name='_ZNKSt4__n17num_getIwNS_19istreambuf_iteratorIwNS_11char_traitsIwEEEEE6do_getES4_S4_RNS_8ios_baseERjRt' type='func-type' binding='weak-binding' visibility='default-visibility' is-defined='yes'/>
    <elf-symbol name='_ZNKSt4__n17num_getIwNS_19istreambuf_iteratorIwNS_11char_traitsIwEEEEE6do_getES4_S4_RNS_8ios_baseERjRx' type='func-type' binding='weak-binding' visibility='default-visibility' is-defined='yes'/>
    <elf-symbol name='_ZNKSt4__n17num_getIwNS_19istreambuf_iteratorIwNS_11char_traitsIwEEEEE6do_getES4_S4_RNS_8ios_baseERjRy' type='func-type' binding='weak-binding' visibility='default-visibility' is-defined='yes'/>
    <elf-symbol name='_ZNKSt4__n17num_getIwNS_19istreambuf_iteratorIwNS_11char_traitsIwEEEEE6do_getES4_S4_RNS_8ios_baseERjS8_' type='func-type' binding='weak-binding' visibility='default-visibility' is-defined='yes'/>
    <elf-symbol name='_ZNKSt4__n17num_putIcNS_19ostreambuf_iteratorIcNS_11char_traitsIcEEEEE6do_putES4_RNS_8ios_baseEcPKv' type='func-type' binding='weak-binding' visibility='default-visibility' is-defined='yes'/>
    <elf-symbol name='_ZNKSt4__n17num_putIcNS_19ostreambuf_iteratorIcNS_11char_traitsIcEEEEE6do_putES4_RNS_8ios_baseEcb' type='func-type' binding='weak-binding' visibility='default-visibility' is-defined='yes'/>
    <elf-symbol name='_ZNKSt4__n17num_putIcNS_19ostreambuf_iteratorIcNS_11char_traitsIcEEEEE6do_putES4_RNS_8ios_baseEcd' type='func-type' binding='weak-binding' visibility='default-visibility' is-defined='yes'/>
    <elf-symbol name='_ZNKSt4__n17num_putIcNS_19ostreambuf_iteratorIcNS_11char_traitsIcEEEEE6do_putES4_RNS_8ios_baseEce' type='func-type' binding='weak-binding' visibility='default-visibility' is-defined='yes'/>
    <elf-symbol name='_ZNKSt4__n17num_putIcNS_19ostreambuf_iteratorIcNS_11char_traitsIcEEEEE6do_putES4_RNS_8ios_baseEcl' type='func-type' binding='weak-binding' visibility='default-visibility' is-defined='yes'/>
    <elf-symbol name='_ZNKSt4__n17num_putIcNS_19ostreambuf_iteratorIcNS_11char_traitsIcEEEEE6do_putES4_RNS_8ios_baseEcm' type='func-type' binding='weak-binding' visibility='default-visibility' is-defined='yes'/>
    <elf-symbol name='_ZNKSt4__n17num_putIcNS_19ostreambuf_iteratorIcNS_11char_traitsIcEEEEE6do_putES4_RNS_8ios_baseEcx' type='func-type' binding='weak-binding' visibility='default-visibility' is-defined='yes'/>
    <elf-symbol name='_ZNKSt4__n17num_putIcNS_19ostreambuf_iteratorIcNS_11char_traitsIcEEEEE6do_putES4_RNS_8ios_baseEcy' type='func-type' binding='weak-binding' visibility='default-visibility' is-defined='yes'/>
    <elf-symbol name='_ZNKSt4__n17num_putIwNS_19ostreambuf_iteratorIwNS_11char_traitsIwEEEEE6do_putES4_RNS_8ios_baseEwPKv' type='func-type' binding='weak-binding' visibility='default-visibility' is-defined='yes'/>
    <elf-symbol name='_ZNKSt4__n17num_putIwNS_19ostreambuf_iteratorIwNS_11char_traitsIwEEEEE6do_putES4_RNS_8ios_baseEwb' type='func-type' binding='weak-binding' visibility='default-visibility' is-defined='yes'/>
    <elf-symbol name='_ZNKSt4__n17num_putIwNS_19ostreambuf_iteratorIwNS_11char_traitsIwEEEEE6do_putES4_RNS_8ios_baseEwd' type='func-type' binding='weak-binding' visibility='default-visibility' is-defined='yes'/>
    <elf-symbol name='_ZNKSt4__n17num_putIwNS_19ostreambuf_iteratorIwNS_11char_traitsIwEEEEE6do_putES4_RNS_8ios_baseEwe' type='func-type' binding='weak-binding' visibility='default-visibility' is-defined='yes'/>
    <elf-symbol name='_ZNKSt4__n17num_putIwNS_19ostreambuf_iteratorIwNS_11char_traitsIwEEEEE6do_putES4_RNS_8ios_baseEwl' type='func-type' binding='weak-binding' visibility='default-visibility' is-defined='yes'/>
    <elf-symbol name='_ZNKSt4__n17num_putIwNS_19ostreambuf_iteratorIwNS_11char_traitsIwEEEEE6do_putES4_RNS_8ios_baseEwm' type='func-type' binding='weak-binding' visibility='default-visibility' is-defined='yes'/>
    <elf-symbol name='_ZNKSt4__n17num_putIwNS_19ostreambuf_iteratorIwNS_11char_traitsIwEEEEE6do_putES4_RNS_8ios_baseEwx' type='func-type' binding='weak-binding' visibility='default-visibility' is-defined='yes'/>
    <elf-symbol name='_ZNKSt4__n17num_putIwNS_19ostreambuf_iteratorIwNS_11char_traitsIwEEEEE6do_putES4_RNS_8ios_baseEwy' type='func-type' binding='weak-binding' visibility='default-visibility' is-defined='yes'/>
    <elf-symbol name='_ZNKSt4__n18ios_base6getlocEv' type='func-type' binding='global-binding' visibility='default-visibility' is-defined='yes'/>
    <elf-symbol name='_ZNKSt4__n18messagesIcE6do_getEiiiRKNS_12basic_stringIcNS_11char_traitsIcEENS_9allocatorIcEEEE' type='func-type' binding='weak-binding' visibility='default-visibility' is-defined='yes'/>
    <elf-symbol name='_ZNKSt4__n18messagesIcE7do_openERKNS_12basic_stringIcNS_11char_traitsIcEENS_9allocatorIcEEEERKNS_6localeE' type='func-type' binding='weak-binding' visibility='default-visibility' is-defined='yes'/>
    <elf-symbol name='_ZNKSt4__n18messagesIcE8do_closeEi' type='func-type' binding='weak-binding' visibility='default-visibility' is-defined='yes'/>
    <elf-symbol name='_ZNKSt4__n18messagesIwE6do_getEiiiRKNS_12basic_stringIwNS_11char_traitsIwEENS_9allocatorIwEEEE' type='func-type' binding='weak-binding' visibility='default-visibility' is-defined='yes'/>
    <elf-symbol name='_ZNKSt4__n18messagesIwE7do_openERKNS_12basic_stringIcNS_11char_traitsIcEENS_9allocatorIcEEEERKNS_6localeE' type='func-type' binding='weak-binding' visibility='default-visibility' is-defined='yes'/>
    <elf-symbol name='_ZNKSt4__n18messagesIwE8do_closeEi' type='func-type' binding='weak-binding' visibility='default-visibility' is-defined='yes'/>
    <elf-symbol name='_ZNKSt4__n18numpunctIcE11do_groupingEv' type='func-type' binding='global-binding' visibility='default-visibility' is-defined='yes'/>
    <elf-symbol name='_ZNKSt4__n18numpunctIcE11do_truenameEv' type='func-type' binding='global-binding' visibility='default-visibility' is-defined='yes'/>
    <elf-symbol name='_ZNKSt4__n18numpunctIcE12do_falsenameEv' type='func-type' binding='global-binding' visibility='default-visibility' is-defined='yes'/>
    <elf-symbol name='_ZNKSt4__n18numpunctIcE16do_decimal_pointEv' type='func-type' binding='global-binding' visibility='default-visibility' is-defined='yes'/>
    <elf-symbol name='_ZNKSt4__n18numpunctIcE16do_thousands_sepEv' type='func-type' binding='global-binding' visibility='default-visibility' is-defined='yes'/>
    <elf-symbol name='_ZNKSt4__n18numpunctIwE11do_groupingEv' type='func-type' binding='global-binding' visibility='default-visibility' is-defined='yes'/>
    <elf-symbol name='_ZNKSt4__n18numpunctIwE11do_truenameEv' type='func-type' binding='global-binding' visibility='default-visibility' is-defined='yes'/>
    <elf-symbol name='_ZNKSt4__n18numpunctIwE12do_falsenameEv' type='func-type' binding='global-binding' visibility='default-visibility' is-defined='yes'/>
    <elf-symbol name='_ZNKSt4__n18numpunctIwE16do_decimal_pointEv' type='func-type' binding='global-binding' visibility='default-visibility' is-defined='yes'/>
    <elf-symbol name='_ZNKSt4__n18numpunctIwE16do_thousands_sepEv' type='func-type' binding='global-binding' visibility='default-visibility' is-defined='yes'/>
    <elf-symbol name='_ZNKSt4__n18time_getIcNS_19istreambuf_iteratorIcNS_11char_traitsIcEEEEE10__get_hourERiRS4_S4_RjRKNS_5ctypeIcEE' type='func-type' binding='weak-binding' visibility='default-visibility' is-defined='yes'/>
    <elf-symbol name='_ZNKSt4__n18time_getIcNS_19istreambuf_iteratorIcNS_11char_traitsIcEEEEE10__get_yearERiRS4_S4_RjRKNS_5ctypeIcEE' type='func-type' binding='weak-binding' visibility='default-visibility' is-defined='yes'/>
    <elf-symbol name='_ZNKSt4__n18time_getIcNS_19istreambuf_iteratorIcNS_11char_traitsIcEEEEE11__get_am_pmERiRS4_S4_RjRKNS_5ctypeIcEE' type='func-type' binding='weak-binding' visibility='default-visibility' is-defined='yes'/>
    <elf-symbol name='_ZNKSt4__n18time_getIcNS_19istreambuf_iteratorIcNS_11char_traitsIcEEEEE11__get_monthERiRS4_S4_RjRKNS_5ctypeIcEE' type='func-type' binding='weak-binding' visibility='default-visibility' is-defined='yes'/>
    <elf-symbol name='_ZNKSt4__n18time_getIcNS_19istreambuf_iteratorIcNS_11char_traitsIcEEEEE11__get_year4ERiRS4_S4_RjRKNS_5ctypeIcEE' type='func-type' binding='weak-binding' visibility='default-visibility' is-defined='yes'/>
    <elf-symbol name='_ZNKSt4__n18time_getIcNS_19istreambuf_iteratorIcNS_11char_traitsIcEEEEE11do_get_dateES4_S4_RNS_8ios_baseERjP2tm' type='func-type' binding='weak-binding' visibility='default-visibility' is-defined='yes'/>
    <elf-symbol name='_ZNKSt4__n18time_getIcNS_19istreambuf_iteratorIcNS_11char_traitsIcEEEEE11do_get_timeES4_S4_RNS_8ios_baseERjP2tm' type='func-type' binding='weak-binding' visibility='default-visibility' is-defined='yes'/>
    <elf-symbol name='_ZNKSt4__n18time_getIcNS_19istreambuf_iteratorIcNS_11char_traitsIcEEEEE11do_get_yearES4_S4_RNS_8ios_baseERjP2tm' type='func-type' binding='weak-binding' visibility='default-visibility' is-defined='yes'/>
    <elf-symbol name='_ZNKSt4__n18time_getIcNS_19istreambuf_iteratorIcNS_11char_traitsIcEEEEE12__get_minuteERiRS4_S4_RjRKNS_5ctypeIcEE' type='func-type' binding='weak-binding' visibility='default-visibility' is-defined='yes'/>
    <elf-symbol name='_ZNKSt4__n18time_getIcNS_19istreambuf_iteratorIcNS_11char_traitsIcEEEEE12__get_secondERiRS4_S4_RjRKNS_5ctypeIcEE' type='func-type' binding='weak-binding' visibility='default-visibility' is-defined='yes'/>
    <elf-symbol name='_ZNKSt4__n18time_getIcNS_19istreambuf_iteratorIcNS_11char_traitsIcEEEEE13__get_12_hourERiRS4_S4_RjRKNS_5ctypeIcEE' type='func-type' binding='weak-binding' visibility='default-visibility' is-defined='yes'/>
    <elf-symbol name='_ZNKSt4__n18time_getIcNS_19istreambuf_iteratorIcNS_11char_traitsIcEEEEE13__get_percentERS4_S4_RjRKNS_5ctypeIcEE' type='func-type' binding='weak-binding' visibility='default-visibility' is-defined='yes'/>
    <elf-symbol name='_ZNKSt4__n18time_getIcNS_19istreambuf_iteratorIcNS_11char_traitsIcEEEEE13__get_weekdayERiRS4_S4_RjRKNS_5ctypeIcEE' type='func-type' binding='weak-binding' visibility='default-visibility' is-defined='yes'/>
    <elf-symbol name='_ZNKSt4__n18time_getIcNS_19istreambuf_iteratorIcNS_11char_traitsIcEEEEE13do_date_orderEv' type='func-type' binding='weak-binding' visibility='default-visibility' is-defined='yes'/>
    <elf-symbol name='_ZNKSt4__n18time_getIcNS_19istreambuf_iteratorIcNS_11char_traitsIcEEEEE14do_get_weekdayES4_S4_RNS_8ios_baseERjP2tm' type='func-type' binding='weak-binding' visibility='default-visibility' is-defined='yes'/>
    <elf-symbol name='_ZNKSt4__n18time_getIcNS_19istreambuf_iteratorIcNS_11char_traitsIcEEEEE15__get_monthnameERiRS4_S4_RjRKNS_5ctypeIcEE' type='func-type' binding='weak-binding' visibility='default-visibility' is-defined='yes'/>
    <elf-symbol name='_ZNKSt4__n18time_getIcNS_19istreambuf_iteratorIcNS_11char_traitsIcEEEEE16do_get_monthnameES4_S4_RNS_8ios_baseERjP2tm' type='func-type' binding='weak-binding' visibility='default-visibility' is-defined='yes'/>
    <elf-symbol name='_ZNKSt4__n18time_getIcNS_19istreambuf_iteratorIcNS_11char_traitsIcEEEEE17__get_weekdaynameERiRS4_S4_RjRKNS_5ctypeIcEE' type='func-type' binding='weak-binding' visibility='default-visibility' is-defined='yes'/>
    <elf-symbol name='_ZNKSt4__n18time_getIcNS_19istreambuf_iteratorIcNS_11char_traitsIcEEEEE17__get_white_spaceERS4_S4_RjRKNS_5ctypeIcEE' type='func-type' binding='weak-binding' visibility='default-visibility' is-defined='yes'/>
    <elf-symbol name='_ZNKSt4__n18time_getIcNS_19istreambuf_iteratorIcNS_11char_traitsIcEEEEE18__get_day_year_numERiRS4_S4_RjRKNS_5ctypeIcEE' type='func-type' binding='weak-binding' visibility='default-visibility' is-defined='yes'/>
    <elf-symbol name='_ZNKSt4__n18time_getIcNS_19istreambuf_iteratorIcNS_11char_traitsIcEEEEE3getES4_S4_RNS_8ios_baseERjP2tmPKcSC_' type='func-type' binding='weak-binding' visibility='default-visibility' is-defined='yes'/>
    <elf-symbol name='_ZNKSt4__n18time_getIcNS_19istreambuf_iteratorIcNS_11char_traitsIcEEEEE6do_getES4_S4_RNS_8ios_baseERjP2tmcc' type='func-type' binding='weak-binding' visibility='default-visibility' is-defined='yes'/>
    <elf-symbol name='_ZNKSt4__n18time_getIcNS_19istreambuf_iteratorIcNS_11char_traitsIcEEEEE9__get_dayERiRS4_S4_RjRKNS_5ctypeIcEE' type='func-type' binding='weak-binding' visibility='default-visibility' is-defined='yes'/>
    <elf-symbol name='_ZNKSt4__n18time_getIwNS_19istreambuf_iteratorIwNS_11char_traitsIwEEEEE10__get_hourERiRS4_S4_RjRKNS_5ctypeIwEE' type='func-type' binding='weak-binding' visibility='default-visibility' is-defined='yes'/>
    <elf-symbol name='_ZNKSt4__n18time_getIwNS_19istreambuf_iteratorIwNS_11char_traitsIwEEEEE10__get_yearERiRS4_S4_RjRKNS_5ctypeIwEE' type='func-type' binding='weak-binding' visibility='default-visibility' is-defined='yes'/>
    <elf-symbol name='_ZNKSt4__n18time_getIwNS_19istreambuf_iteratorIwNS_11char_traitsIwEEEEE11__get_am_pmERiRS4_S4_RjRKNS_5ctypeIwEE' type='func-type' binding='weak-binding' visibility='default-visibility' is-defined='yes'/>
    <elf-symbol name='_ZNKSt4__n18time_getIwNS_19istreambuf_iteratorIwNS_11char_traitsIwEEEEE11__get_monthERiRS4_S4_RjRKNS_5ctypeIwEE' type='func-type' binding='weak-binding' visibility='default-visibility' is-defined='yes'/>
    <elf-symbol name='_ZNKSt4__n18time_getIwNS_19istreambuf_iteratorIwNS_11char_traitsIwEEEEE11__get_year4ERiRS4_S4_RjRKNS_5ctypeIwEE' type='func-type' binding='weak-binding' visibility='default-visibility' is-defined='yes'/>
    <elf-symbol name='_ZNKSt4__n18time_getIwNS_19istreambuf_iteratorIwNS_11char_traitsIwEEEEE11do_get_dateES4_S4_RNS_8ios_baseERjP2tm' type='func-type' binding='weak-binding' visibility='default-visibility' is-defined='yes'/>
    <elf-symbol name='_ZNKSt4__n18time_getIwNS_19istreambuf_iteratorIwNS_11char_traitsIwEEEEE11do_get_timeES4_S4_RNS_8ios_baseERjP2tm' type='func-type' binding='weak-binding' visibility='default-visibility' is-defined='yes'/>
    <elf-symbol name='_ZNKSt4__n18time_getIwNS_19istreambuf_iteratorIwNS_11char_traitsIwEEEEE11do_get_yearES4_S4_RNS_8ios_baseERjP2tm' type='func-type' binding='weak-binding' visibility='default-visibility' is-defined='yes'/>
    <elf-symbol name='_ZNKSt4__n18time_getIwNS_19istreambuf_iteratorIwNS_11char_traitsIwEEEEE12__get_minuteERiRS4_S4_RjRKNS_5ctypeIwEE' type='func-type' binding='weak-binding' visibility='default-visibility' is-defined='yes'/>
    <elf-symbol name='_ZNKSt4__n18time_getIwNS_19istreambuf_iteratorIwNS_11char_traitsIwEEEEE12__get_secondERiRS4_S4_RjRKNS_5ctypeIwEE' type='func-type' binding='weak-binding' visibility='default-visibility' is-defined='yes'/>
    <elf-symbol name='_ZNKSt4__n18time_getIwNS_19istreambuf_iteratorIwNS_11char_traitsIwEEEEE13__get_12_hourERiRS4_S4_RjRKNS_5ctypeIwEE' type='func-type' binding='weak-binding' visibility='default-visibility' is-defined='yes'/>
    <elf-symbol name='_ZNKSt4__n18time_getIwNS_19istreambuf_iteratorIwNS_11char_traitsIwEEEEE13__get_percentERS4_S4_RjRKNS_5ctypeIwEE' type='func-type' binding='weak-binding' visibility='default-visibility' is-defined='yes'/>
    <elf-symbol name='_ZNKSt4__n18time_getIwNS_19istreambuf_iteratorIwNS_11char_traitsIwEEEEE13__get_weekdayERiRS4_S4_RjRKNS_5ctypeIwEE' type='func-type' binding='weak-binding' visibility='default-visibility' is-defined='yes'/>
    <elf-symbol name='_ZNKSt4__n18time_getIwNS_19istreambuf_iteratorIwNS_11char_traitsIwEEEEE13do_date_orderEv' type='func-type' binding='weak-binding' visibility='default-visibility' is-defined='yes'/>
    <elf-symbol name='_ZNKSt4__n18time_getIwNS_19istreambuf_iteratorIwNS_11char_traitsIwEEEEE14do_get_weekdayES4_S4_RNS_8ios_baseERjP2tm' type='func-type' binding='weak-binding' visibility='default-visibility' is-defined='yes'/>
    <elf-symbol name='_ZNKSt4__n18time_getIwNS_19istreambuf_iteratorIwNS_11char_traitsIwEEEEE15__get_monthnameERiRS4_S4_RjRKNS_5ctypeIwEE' type='func-type' binding='weak-binding' visibility='default-visibility' is-defined='yes'/>
    <elf-symbol name='_ZNKSt4__n18time_getIwNS_19istreambuf_iteratorIwNS_11char_traitsIwEEEEE16do_get_monthnameES4_S4_RNS_8ios_baseERjP2tm' type='func-type' binding='weak-binding' visibility='default-visibility' is-defined='yes'/>
    <elf-symbol name='_ZNKSt4__n18time_getIwNS_19istreambuf_iteratorIwNS_11char_traitsIwEEEEE17__get_weekdaynameERiRS4_S4_RjRKNS_5ctypeIwEE' type='func-type' binding='weak-binding' visibility='default-visibility' is-defined='yes'/>
    <elf-symbol name='_ZNKSt4__n18time_getIwNS_19istreambuf_iteratorIwNS_11char_traitsIwEEEEE17__get_white_spaceERS4_S4_RjRKNS_5ctypeIwEE' type='func-type' binding='weak-binding' visibility='default-visibility' is-defined='yes'/>
    <elf-symbol name='_ZNKSt4__n18time_getIwNS_19istreambuf_iteratorIwNS_11char_traitsIwEEEEE18__get_day_year_numERiRS4_S4_RjRKNS_5ctypeIwEE' type='func-type' binding='weak-binding' visibility='default-visibility' is-defined='yes'/>
    <elf-symbol name='_ZNKSt4__n18time_getIwNS_19istreambuf_iteratorIwNS_11char_traitsIwEEEEE3getES4_S4_RNS_8ios_baseERjP2tmPKwSC_' type='func-type' binding='weak-binding' visibility='default-visibility' is-defined='yes'/>
    <elf-symbol name='_ZNKSt4__n18time_getIwNS_19istreambuf_iteratorIwNS_11char_traitsIwEEEEE6do_getES4_S4_RNS_8ios_baseERjP2tmcc' type='func-type' binding='weak-binding' visibility='default-visibility' is-defined='yes'/>
    <elf-symbol name='_ZNKSt4__n18time_getIwNS_19istreambuf_iteratorIwNS_11char_traitsIwEEEEE9__get_dayERiRS4_S4_RjRKNS_5ctypeIwEE' type='func-type' binding='weak-binding' visibility='default-visibility' is-defined='yes'/>
    <elf-symbol name='_ZNKSt4__n18time_putIcNS_19ostreambuf_iteratorIcNS_11char_traitsIcEEEEE3putES4_RNS_8ios_baseEcPK2tmPKcSC_' type='func-type' binding='weak-binding' visibility='default-visibility' is-defined='yes'/>
    <elf-symbol name='_ZNKSt4__n18time_putIcNS_19ostreambuf_iteratorIcNS_11char_traitsIcEEEEE6do_putES4_RNS_8ios_baseEcPK2tmcc' type='func-type' binding='weak-binding' visibility='default-visibility' is-defined='yes'/>
    <elf-symbol name='_ZNKSt4__n18time_putIwNS_19ostreambuf_iteratorIwNS_11char_traitsIwEEEEE3putES4_RNS_8ios_baseEwPK2tmPKwSC_' type='func-type' binding='weak-binding' visibility='default-visibility' is-defined='yes'/>
    <elf-symbol name='_ZNKSt4__n18time_putIwNS_19ostreambuf_iteratorIwNS_11char_traitsIwEEEEE6do_putES4_RNS_8ios_baseEwPK2tmcc' type='func-type' binding='weak-binding' visibility='default-visibility' is-defined='yes'/>
    <elf-symbol name='_ZNKSt4__n19money_getIcNS_19istreambuf_iteratorIcNS_11char_traitsIcEEEEE6do_getES4_S4_bRNS_8ios_baseERjRNS_12basic_stringIcS3_NS_9allocatorIcEEEE' type='func-type' binding='weak-binding' visibility='default-visibility' is-defined='yes'/>
    <elf-symbol name='_ZNKSt4__n19money_getIcNS_19istreambuf_iteratorIcNS_11char_traitsIcEEEEE6do_getES4_S4_bRNS_8ios_baseERjRe' type='func-type' binding='weak-binding' visibility='default-visibility' is-defined='yes'/>
    <elf-symbol name='_ZNKSt4__n19money_getIwNS_19istreambuf_iteratorIwNS_11char_traitsIwEEEEE6do_getES4_S4_bRNS_8ios_baseERjRNS_12basic_stringIwS3_NS_9allocatorIwEEEE' type='func-type' binding='weak-binding' visibility='default-visibility' is-defined='yes'/>
    <elf-symbol name='_ZNKSt4__n19money_getIwNS_19istreambuf_iteratorIwNS_11char_traitsIwEEEEE6do_getES4_S4_bRNS_8ios_baseERjRe' type='func-type' binding='weak-binding' visibility='default-visibility' is-defined='yes'/>
    <elf-symbol name='_ZNKSt4__n19money_putIcNS_19ostreambuf_iteratorIcNS_11char_traitsIcEEEEE6do_putES4_bRNS_8ios_baseEcRKNS_12basic_stringIcS3_NS_9allocatorIcEEEE' type='func-type' binding='weak-binding' visibility='default-visibility' is-defined='yes'/>
    <elf-symbol name='_ZNKSt4__n19money_putIcNS_19ostreambuf_iteratorIcNS_11char_traitsIcEEEEE6do_putES4_bRNS_8ios_baseEce' type='func-type' binding='weak-binding' visibility='default-visibility' is-defined='yes'/>
    <elf-symbol name='_ZNKSt4__n19money_putIwNS_19ostreambuf_iteratorIwNS_11char_traitsIwEEEEE6do_putES4_bRNS_8ios_baseEwRKNS_12basic_stringIwS3_NS_9allocatorIwEEEE' type='func-type' binding='weak-binding' visibility='default-visibility' is-defined='yes'/>
    <elf-symbol name='_ZNKSt4__n19money_putIwNS_19ostreambuf_iteratorIwNS_11char_traitsIwEEEEE6do_putES4_bRNS_8ios_baseEwe' type='func-type' binding='weak-binding' visibility='default-visibility' is-defined='yes'/>
    <elf-symbol name='_ZNKSt8bad_cast4whatEv' type='func-type' binding='global-binding' visibility='default-visibility' is-defined='yes'/>
    <elf-symbol name='_ZNKSt9bad_alloc4whatEv' type='func-type' binding='global-binding' visibility='default-visibility' is-defined='yes'/>
    <elf-symbol name='_ZNKSt9exception4whatEv' type='func-type' binding='global-binding' visibility='default-visibility' is-defined='yes'/>
    <elf-symbol name='_ZNSt10bad_typeidC1Ev' type='func-type' binding='global-binding' visibility='default-visibility' is-defined='yes'/>
    <elf-symbol name='_ZNSt10bad_typeidC2Ev' type='func-type' binding='global-binding' visibility='default-visibility' alias='_ZNSt10bad_typeidC1Ev' is-defined='yes'/>
    <elf-symbol name='_ZNSt10bad_typeidD0Ev' type='func-type' binding='global-binding' visibility='default-visibility' is-defined='yes'/>
    <elf-symbol name='_ZNSt10bad_typeidD1Ev' type='func-type' binding='global-binding' visibility='default-visibility' is-defined='yes'/>
    <elf-symbol name='_ZNSt10bad_typeidD2Ev' type='func-type' binding='global-binding' visibility='default-visibility' alias='_ZNSt10bad_typeidD1Ev' is-defined='yes'/>
    <elf-symbol name='_ZNSt11logic_errorC1EPKc' type='func-type' binding='global-binding' visibility='default-visibility' alias='_ZNSt11logic_errorC2EPKc' is-defined='yes'/>
    <elf-symbol name='_ZNSt11logic_errorC1ERKNSt4__n112basic_stringIcNS0_11char_traitsIcEENS0_9allocatorIcEEEE' type='func-type' binding='global-binding' visibility='default-visibility' alias='_ZNSt11logic_errorC2ERKNSt4__n112basic_stringIcNS0_11char_traitsIcEENS0_9allocatorIcEEEE' is-defined='yes'/>
    <elf-symbol name='_ZNSt11logic_errorC1ERKS_' type='func-type' binding='global-binding' visibility='default-visibility' alias='_ZNSt11logic_errorC2ERKS_' is-defined='yes'/>
    <elf-symbol name='_ZNSt11logic_errorC2EPKc' type='func-type' binding='global-binding' visibility='default-visibility' is-defined='yes'/>
    <elf-symbol name='_ZNSt11logic_errorC2ERKNSt4__n112basic_stringIcNS0_11char_traitsIcEENS0_9allocatorIcEEEE' type='func-type' binding='global-binding' visibility='default-visibility' is-defined='yes'/>
    <elf-symbol name='_ZNSt11logic_errorC2ERKS_' type='func-type' binding='global-binding' visibility='default-visibility' is-defined='yes'/>
    <elf-symbol name='_ZNSt11logic_errorD0Ev' type='func-type' binding='global-binding' visibility='default-visibility' is-defined='yes'/>
    <elf-symbol name='_ZNSt11logic_errorD1Ev' type='func-type' binding='global-binding' visibility='default-visibility' is-defined='yes'/>
    <elf-symbol name='_ZNSt11logic_errorD2Ev' type='func-type' binding='global-binding' visibility='default-visibility' is-defined='yes'/>
    <elf-symbol name='_ZNSt11logic_erroraSERKS_' type='func-type' binding='global-binding' visibility='default-visibility' is-defined='yes'/>
    <elf-symbol name='_ZNSt11range_errorD0Ev' type='func-type' binding='global-binding' visibility='default-visibility' is-defined='yes'/>
    <elf-symbol name='_ZNSt11range_errorD1Ev' type='func-type' binding='global-binding' visibility='default-visibility' is-defined='yes'/>
    <elf-symbol name='_ZNSt11range_errorD2Ev' type='func-type' binding='global-binding' visibility='default-visibility' alias='_ZNSt14overflow_errorD2Ev,_ZNSt15underflow_errorD2Ev,_ZNSt13runtime_errorD1Ev,_ZNSt11range_errorD1Ev,_ZNSt14overflow_errorD1Ev,_ZNSt15underflow_errorD1Ev,_ZNSt13runtime_errorD2Ev' is-defined='yes'/>
    <elf-symbol name='_ZNSt12domain_errorD0Ev' type='func-type' binding='global-binding' visibility='default-visibility' is-defined='yes'/>
    <elf-symbol name='_ZNSt12domain_errorD1Ev' type='func-type' binding='global-binding' visibility='default-visibility' is-defined='yes'/>
    <elf-symbol name='_ZNSt12domain_errorD2Ev' type='func-type' binding='global-binding' visibility='default-visibility' alias='_ZNSt16invalid_argumentD2Ev,_ZNSt12length_errorD2Ev,_ZNSt12out_of_rangeD2Ev,_ZNSt11logic_errorD1Ev,_ZNSt12domain_errorD1Ev,_ZNSt16invalid_argumentD1Ev,_ZNSt12length_errorD1Ev,_ZNSt12out_of_rangeD1Ev,_ZNSt11logic_errorD2Ev' is-defined='yes'/>
    <elf-symbol name='_ZNSt12experimental19bad_optional_accessD0Ev' type='func-type' binding='global-binding' visibility='default-visibility' is-defined='yes'/>
    <elf-symbol name='_ZNSt12experimental19bad_optional_accessD1Ev' type='func-type' binding='global-binding' visibility='default-visibility' is-defined='yes'/>
    <elf-symbol name='_ZNSt12experimental19bad_optional_accessD2Ev' type='func-type' binding='global-binding' visibility='default-visibility' alias='_ZNSt12experimental19bad_optional_accessD1Ev' is-defined='yes'/>
    <elf-symbol name='_ZNSt12length_errorD0Ev' type='func-type' binding='global-binding' visibility='default-visibility' is-defined='yes'/>
    <elf-symbol name='_ZNSt12length_errorD1Ev' type='func-type' binding='global-binding' visibility='default-visibility' is-defined='yes'/>
    <elf-symbol name='_ZNSt12length_errorD2Ev' type='func-type' binding='global-binding' visibility='default-visibility' is-defined='yes'/>
    <elf-symbol name='_ZNSt12out_of_rangeD0Ev' type='func-type' binding='global-binding' visibility='default-visibility' is-defined='yes'/>
    <elf-symbol name='_ZNSt12out_of_rangeD1Ev' type='func-type' binding='global-binding' visibility='default-visibility' is-defined='yes'/>
    <elf-symbol name='_ZNSt12out_of_rangeD2Ev' type='func-type' binding='global-binding' visibility='default-visibility' is-defined='yes'/>
    <elf-symbol name='_ZNSt13bad_exceptionD0Ev' type='func-type' binding='global-binding' visibility='default-visibility' is-defined='yes'/>
    <elf-symbol name='_ZNSt13bad_exceptionD1Ev' type='func-type' binding='global-binding' visibility='default-visibility' is-defined='yes'/>
    <elf-symbol name='_ZNSt13bad_exceptionD2Ev' type='func-type' binding='global-binding' visibility='default-visibility' alias='_ZNSt9bad_allocD2Ev,_ZNSt20bad_array_new_lengthD2Ev,_ZNSt20bad_array_new_lengthD1Ev,_ZNSt9exceptionD1Ev,_ZNSt13bad_exceptionD1Ev,_ZNSt9bad_allocD1Ev,_ZNSt9exceptionD2Ev' is-defined='yes'/>
    <elf-symbol name='_ZNSt13exception_ptrC1ERKS_' type='func-type' binding='global-binding' visibility='default-visibility' is-defined='yes'/>
    <elf-symbol name='_ZNSt13exception_ptrC2ERKS_' type='func-type' binding='global-binding' visibility='default-visibility' alias='_ZNSt13exception_ptrC1ERKS_' is-defined='yes'/>
    <elf-symbol name='_ZNSt13exception_ptrD1Ev' type='func-type' binding='global-binding' visibility='default-visibility' is-defined='yes'/>
    <elf-symbol name='_ZNSt13exception_ptrD2Ev' type='func-type' binding='global-binding' visibility='default-visibility' alias='_ZNSt13exception_ptrD1Ev' is-defined='yes'/>
    <elf-symbol name='_ZNSt13exception_ptraSERKS_' type='func-type' binding='global-binding' visibility='default-visibility' is-defined='yes'/>
    <elf-symbol name='_ZNSt13runtime_errorC1EPKc' type='func-type' binding='global-binding' visibility='default-visibility' is-defined='yes'/>
    <elf-symbol name='_ZNSt13runtime_errorC1ERKNSt4__n112basic_stringIcNS0_11char_traitsIcEENS0_9allocatorIcEEEE' type='func-type' binding='global-binding' visibility='default-visibility' is-defined='yes'/>
    <elf-symbol name='_ZNSt13runtime_errorC1ERKS_' type='func-type' binding='global-binding' visibility='default-visibility' is-defined='yes'/>
    <elf-symbol name='_ZNSt13runtime_errorC2EPKc' type='func-type' binding='global-binding' visibility='default-visibility' alias='_ZNSt13runtime_errorC1EPKc' is-defined='yes'/>
    <elf-symbol name='_ZNSt13runtime_errorC2ERKNSt4__n112basic_stringIcNS0_11char_traitsIcEENS0_9allocatorIcEEEE' type='func-type' binding='global-binding' visibility='default-visibility' alias='_ZNSt13runtime_errorC1ERKNSt4__n112basic_stringIcNS0_11char_traitsIcEENS0_9allocatorIcEEEE' is-defined='yes'/>
    <elf-symbol name='_ZNSt13runtime_errorC2ERKS_' type='func-type' binding='global-binding' visibility='default-visibility' alias='_ZNSt13runtime_errorC1ERKS_' is-defined='yes'/>
    <elf-symbol name='_ZNSt13runtime_errorD0Ev' type='func-type' binding='global-binding' visibility='default-visibility' is-defined='yes'/>
    <elf-symbol name='_ZNSt13runtime_errorD1Ev' type='func-type' binding='global-binding' visibility='default-visibility' is-defined='yes'/>
    <elf-symbol name='_ZNSt13runtime_errorD2Ev' type='func-type' binding='global-binding' visibility='default-visibility' is-defined='yes'/>
    <elf-symbol name='_ZNSt13runtime_erroraSERKS_' type='func-type' binding='global-binding' visibility='default-visibility' is-defined='yes'/>
    <elf-symbol name='_ZNSt14overflow_errorD0Ev' type='func-type' binding='global-binding' visibility='default-visibility' is-defined='yes'/>
    <elf-symbol name='_ZNSt14overflow_errorD1Ev' type='func-type' binding='global-binding' visibility='default-visibility' is-defined='yes'/>
    <elf-symbol name='_ZNSt14overflow_errorD2Ev' type='func-type' binding='global-binding' visibility='default-visibility' is-defined='yes'/>
    <elf-symbol name='_ZNSt15underflow_errorD0Ev' type='func-type' binding='global-binding' visibility='default-visibility' is-defined='yes'/>
    <elf-symbol name='_ZNSt15underflow_errorD1Ev' type='func-type' binding='global-binding' visibility='default-visibility' is-defined='yes'/>
    <elf-symbol name='_ZNSt15underflow_errorD2Ev' type='func-type' binding='global-binding' visibility='default-visibility' is-defined='yes'/>
    <elf-symbol name='_ZNSt16invalid_argumentD0Ev' type='func-type' binding='global-binding' visibility='default-visibility' is-defined='yes'/>
    <elf-symbol name='_ZNSt16invalid_argumentD1Ev' type='func-type' binding='global-binding' visibility='default-visibility' is-defined='yes'/>
    <elf-symbol name='_ZNSt16invalid_argumentD2Ev' type='func-type' binding='global-binding' visibility='default-visibility' is-defined='yes'/>
    <elf-symbol name='_ZNSt16nested_exceptionC1Ev' type='func-type' binding='global-binding' visibility='default-visibility' is-defined='yes'/>
    <elf-symbol name='_ZNSt16nested_exceptionC2Ev' type='func-type' binding='global-binding' visibility='default-visibility' alias='_ZNSt16nested_exceptionC1Ev' is-defined='yes'/>
    <elf-symbol name='_ZNSt16nested_exceptionD0Ev' type='func-type' binding='global-binding' visibility='default-visibility' is-defined='yes'/>
    <elf-symbol name='_ZNSt16nested_exceptionD1Ev' type='func-type' binding='global-binding' visibility='default-visibility' is-defined='yes'/>
    <elf-symbol name='_ZNSt16nested_exceptionD2Ev' type='func-type' binding='global-binding' visibility='default-visibility' alias='_ZNSt16nested_exceptionD1Ev' is-defined='yes'/>
    <elf-symbol name='_ZNSt19bad_optional_accessD0Ev' type='func-type' binding='global-binding' visibility='default-visibility' is-defined='yes'/>
    <elf-symbol name='_ZNSt19bad_optional_accessD1Ev' type='func-type' binding='global-binding' visibility='default-visibility' is-defined='yes'/>
    <elf-symbol name='_ZNSt19bad_optional_accessD2Ev' type='func-type' binding='global-binding' visibility='default-visibility' alias='_ZNSt19bad_optional_accessD1Ev' is-defined='yes'/>
    <elf-symbol name='_ZNSt20bad_array_new_lengthC1Ev' type='func-type' binding='global-binding' visibility='default-visibility' is-defined='yes'/>
    <elf-symbol name='_ZNSt20bad_array_new_lengthC2Ev' type='func-type' binding='global-binding' visibility='default-visibility' alias='_ZNSt20bad_array_new_lengthC1Ev' is-defined='yes'/>
    <elf-symbol name='_ZNSt20bad_array_new_lengthD0Ev' type='func-type' binding='global-binding' visibility='default-visibility' is-defined='yes'/>
    <elf-symbol name='_ZNSt20bad_array_new_lengthD1Ev' type='func-type' binding='global-binding' visibility='default-visibility' is-defined='yes'/>
    <elf-symbol name='_ZNSt20bad_array_new_lengthD2Ev' type='func-type' binding='global-binding' visibility='default-visibility' is-defined='yes'/>
    <elf-symbol name='_ZNSt4__n110__time_getC1EPKc' type='func-type' binding='global-binding' visibility='default-visibility' alias='_ZNSt4__n110__time_getC2EPKc' is-defined='yes'/>
    <elf-symbol name='_ZNSt4__n110__time_getC1ERKNS_12basic_stringIcNS_11char_traitsIcEENS_9allocatorIcEEEE' type='func-type' binding='global-binding' visibility='default-visibility' is-defined='yes'/>
    <elf-symbol name='_ZNSt4__n110__time_getC2EPKc' type='func-type' binding='global-binding' visibility='default-visibility' is-defined='yes'/>
    <elf-symbol name='_ZNSt4__n110__time_getC2ERKNS_12basic_stringIcNS_11char_traitsIcEENS_9allocatorIcEEEE' type='func-type' binding='global-binding' visibility='default-visibility' alias='_ZNSt4__n110__time_getC1ERKNS_12basic_stringIcNS_11char_traitsIcEENS_9allocatorIcEEEE' is-defined='yes'/>
    <elf-symbol name='_ZNSt4__n110__time_getD1Ev' type='func-type' binding='global-binding' visibility='default-visibility' alias='_ZNSt4__n110__time_getD2Ev' is-defined='yes'/>
    <elf-symbol name='_ZNSt4__n110__time_getD2Ev' type='func-type' binding='global-binding' visibility='default-visibility' is-defined='yes'/>
    <elf-symbol name='_ZNSt4__n110__time_putC1EPKc' type='func-type' binding='global-binding' visibility='default-visibility' is-defined='yes'/>
    <elf-symbol name='_ZNSt4__n110__time_putC1ERKNS_12basic_stringIcNS_11char_traitsIcEENS_9allocatorIcEEEE' type='func-type' binding='global-binding' visibility='default-visibility' is-defined='yes'/>
    <elf-symbol name='_ZNSt4__n110__time_putC2EPKc' type='func-type' binding='global-binding' visibility='default-visibility' alias='_ZNSt4__n110__time_putC1EPKc' is-defined='yes'/>
    <elf-symbol name='_ZNSt4__n110__time_putC2ERKNS_12basic_stringIcNS_11char_traitsIcEENS_9allocatorIcEEEE' type='func-type' binding='global-binding' visibility='default-visibility' alias='_ZNSt4__n110__time_putC1ERKNS_12basic_stringIcNS_11char_traitsIcEENS_9allocatorIcEEEE' is-defined='yes'/>
    <elf-symbol name='_ZNSt4__n110__time_putD1Ev' type='func-type' binding='global-binding' visibility='default-visibility' alias='_ZNSt4__n110__time_putD2Ev' is-defined='yes'/>
    <elf-symbol name='_ZNSt4__n110__time_putD2Ev' type='func-type' binding='global-binding' visibility='default-visibility' is-defined='yes'/>
    <elf-symbol name='_ZNSt4__n110istrstreamD0Ev' type='func-type' binding='global-binding' visibility='default-visibility' is-defined='yes'/>
    <elf-symbol name='_ZNSt4__n110istrstreamD1Ev' type='func-type' binding='global-binding' visibility='default-visibility' is-defined='yes'/>
    <elf-symbol name='_ZNSt4__n110istrstreamD2Ev' type='func-type' binding='global-binding' visibility='default-visibility' is-defined='yes'/>
    <elf-symbol name='_ZNSt4__n110ostrstreamD0Ev' type='func-type' binding='global-binding' visibility='default-visibility' is-defined='yes'/>
    <elf-symbol name='_ZNSt4__n110ostrstreamD1Ev' type='func-type' binding='global-binding' visibility='default-visibility' is-defined='yes'/>
    <elf-symbol name='_ZNSt4__n110ostrstreamD2Ev' type='func-type' binding='global-binding' visibility='default-visibility' is-defined='yes'/>
    <elf-symbol name='_ZNSt4__n110to_wstringEd' type='func-type' binding='global-binding' visibility='default-visibility' is-defined='yes'/>
    <elf-symbol name='_ZNSt4__n110to_wstringEe' type='func-type' binding='global-binding' visibility='default-visibility' is-defined='yes'/>
    <elf-symbol name='_ZNSt4__n110to_wstringEf' type='func-type' binding='global-binding' visibility='default-visibility' is-defined='yes'/>
    <elf-symbol name='_ZNSt4__n110to_wstringEi' type='func-type' binding='global-binding' visibility='default-visibility' is-defined='yes'/>
    <elf-symbol name='_ZNSt4__n110to_wstringEj' type='func-type' binding='global-binding' visibility='default-visibility' is-defined='yes'/>
    <elf-symbol name='_ZNSt4__n110to_wstringEl' type='func-type' binding='global-binding' visibility='default-visibility' is-defined='yes'/>
    <elf-symbol name='_ZNSt4__n110to_wstringEm' type='func-type' binding='global-binding' visibility='default-visibility' is-defined='yes'/>
    <elf-symbol name='_ZNSt4__n110to_wstringEx' type='func-type' binding='global-binding' visibility='default-visibility' is-defined='yes'/>
    <elf-symbol name='_ZNSt4__n110to_wstringEy' type='func-type' binding='global-binding' visibility='default-visibility' is-defined='yes'/>
    <elf-symbol name='_ZNSt4__n111__call_onceERVmPvPFvS2_E' type='func-type' binding='global-binding' visibility='default-visibility' is-defined='yes'/>
    <elf-symbol name='_ZNSt4__n111__money_getIcE13__gather_infoEbRKNS_6localeERNS_10money_base7patternERcS8_RNS_12basic_stringIcNS_11char_traitsIcEENS_9allocatorIcEEEESF_SF_SF_Ri' type='func-type' binding='weak-binding' visibility='default-visibility' is-defined='yes'/>
    <elf-symbol name='_ZNSt4__n111__money_getIwE13__gather_infoEbRKNS_6localeERNS_10money_base7patternERwS8_RNS_12basic_stringIcNS_11char_traitsIcEENS_9allocatorIcEEEERNS9_IwNSA_IwEENSC_IwEEEESJ_SJ_Ri' type='func-type' binding='weak-binding' visibility='default-visibility' is-defined='yes'/>
    <elf-symbol name='_ZNSt4__n111__money_putIcE13__gather_infoEbbRKNS_6localeERNS_10money_base7patternERcS8_RNS_12basic_stringIcNS_11char_traitsIcEENS_9allocatorIcEEEESF_SF_Ri' type='func-type' binding='weak-binding' visibility='default-visibility' is-defined='yes'/>
    <elf-symbol name='_ZNSt4__n111__money_putIcE8__formatEPcRS2_S3_jPKcS5_RKNS_5ctypeIcEEbRKNS_10money_base7patternEccRKNS_12basic_stringIcNS_11char_traitsIcEENS_9allocatorIcEEEESL_SL_i' type='func-type' binding='weak-binding' visibility='default-visibility' is-defined='yes'/>
    <elf-symbol name='_ZNSt4__n111__money_putIwE13__gather_infoEbbRKNS_6localeERNS_10money_base7patternERwS8_RNS_12basic_stringIcNS_11char_traitsIcEENS_9allocatorIcEEEERNS9_IwNSA_IwEENSC_IwEEEESJ_Ri' type='func-type' binding='weak-binding' visibility='default-visibility' is-defined='yes'/>
    <elf-symbol name='_ZNSt4__n111__money_putIwE8__formatEPwRS2_S3_jPKwS5_RKNS_5ctypeIwEEbRKNS_10money_base7patternEwwRKNS_12basic_stringIcNS_11char_traitsIcEENS_9allocatorIcEEEERKNSE_IwNSF_IwEENSH_IwEEEESQ_i' type='func-type' binding='weak-binding' visibility='default-visibility' is-defined='yes'/>
    <elf-symbol name='_ZNSt4__n111regex_errorC1ENS_15regex_constants10error_typeE' type='func-type' binding='global-binding' visibility='default-visibility' is-defined='yes'/>
    <elf-symbol name='_ZNSt4__n111regex_errorC2ENS_15regex_constants10error_typeE' type='func-type' binding='global-binding' visibility='default-visibility' alias='_ZNSt4__n111regex_errorC1ENS_15regex_constants10error_typeE' is-defined='yes'/>
    <elf-symbol name='_ZNSt4__n111regex_errorD0Ev' type='func-type' binding='global-binding' visibility='default-visibility' is-defined='yes'/>
    <elf-symbol name='_ZNSt4__n111regex_errorD1Ev' type='func-type' binding='global-binding' visibility='default-visibility' is-defined='yes'/>
    <elf-symbol name='_ZNSt4__n111regex_errorD2Ev' type='func-type' binding='global-binding' visibility='default-visibility' alias='_ZNSt4__n111regex_errorD1Ev' is-defined='yes'/>
    <elf-symbol name='_ZNSt4__n111this_thread9sleep_forERKNS_6chrono8durationIxNS_5ratioILx1ELx1000000000EEEEE' type='func-type' binding='global-binding' visibility='default-visibility' is-defined='yes'/>
    <elf-symbol name='_ZNSt4__n111timed_mutex4lockEv' type='func-type' binding='global-binding' visibility='default-visibility' is-defined='yes'/>
    <elf-symbol name='_ZNSt4__n111timed_mutex6unlockEv' type='func-type' binding='global-binding' visibility='default-visibility' is-defined='yes'/>
    <elf-symbol name='_ZNSt4__n111timed_mutex8try_lockEv' type='func-type' binding='global-binding' visibility='default-visibility' is-defined='yes'/>
    <elf-symbol name='_ZNSt4__n111timed_mutexC1Ev' type='func-type' binding='global-binding' visibility='default-visibility' is-defined='yes'/>
    <elf-symbol name='_ZNSt4__n111timed_mutexC2Ev' type='func-type' binding='global-binding' visibility='default-visibility' alias='_ZNSt4__n111timed_mutexC1Ev' is-defined='yes'/>
    <elf-symbol name='_ZNSt4__n111timed_mutexD1Ev' type='func-type' binding='global-binding' visibility='default-visibility' is-defined='yes'/>
    <elf-symbol name='_ZNSt4__n111timed_mutexD2Ev' type='func-type' binding='global-binding' visibility='default-visibility' alias='_ZNSt4__n111timed_mutexD1Ev' is-defined='yes'/>
    <elf-symbol name='_ZNSt4__n112__do_nothingEPv' type='func-type' binding='global-binding' visibility='default-visibility' is-defined='yes'/>
    <elf-symbol name='_ZNSt4__n112__get_sp_mutEPKv' type='func-type' binding='global-binding' visibility='default-visibility' is-defined='yes'/>
    <elf-symbol name='_ZNSt4__n112__next_primeEj' type='func-type' binding='global-binding' visibility='default-visibility' is-defined='yes'/>
    <elf-symbol name='_ZNSt4__n112__rs_defaultC1ERKS0_' type='func-type' binding='global-binding' visibility='default-visibility' is-defined='yes'/>
    <elf-symbol name='_ZNSt4__n112__rs_defaultC1Ev' type='func-type' binding='global-binding' visibility='default-visibility' is-defined='yes'/>
    <elf-symbol name='_ZNSt4__n112__rs_defaultC2ERKS0_' type='func-type' binding='global-binding' visibility='default-visibility' alias='_ZNSt4__n112__rs_defaultC1ERKS0_' is-defined='yes'/>
    <elf-symbol name='_ZNSt4__n112__rs_defaultC2Ev' type='func-type' binding='global-binding' visibility='default-visibility' alias='_ZNSt4__n112__rs_defaultC1Ev' is-defined='yes'/>
    <elf-symbol name='_ZNSt4__n112__rs_defaultD1Ev' type='func-type' binding='global-binding' visibility='default-visibility' is-defined='yes'/>
    <elf-symbol name='_ZNSt4__n112__rs_defaultD2Ev' type='func-type' binding='global-binding' visibility='default-visibility' alias='_ZNSt4__n112__rs_defaultD1Ev' is-defined='yes'/>
    <elf-symbol name='_ZNSt4__n112__rs_defaultclEv' type='func-type' binding='global-binding' visibility='default-visibility' is-defined='yes'/>
    <elf-symbol name='_ZNSt4__n112bad_weak_ptrD0Ev' type='func-type' binding='global-binding' visibility='default-visibility' is-defined='yes'/>
    <elf-symbol name='_ZNSt4__n112bad_weak_ptrD1Ev' type='func-type' binding='global-binding' visibility='default-visibility' is-defined='yes'/>
    <elf-symbol name='_ZNSt4__n112bad_weak_ptrD2Ev' type='func-type' binding='global-binding' visibility='default-visibility' alias='_ZNSt4__n112bad_weak_ptrD1Ev' is-defined='yes'/>
    <elf-symbol name='_ZNSt4__n112basic_stringIcNS_11char_traitsIcEENS_9allocatorIcEEE21__grow_by_and_replaceEjjjjjjPKc' type='func-type' binding='weak-binding' visibility='default-visibility' is-defined='yes'/>
    <elf-symbol name='_ZNSt4__n112basic_stringIcNS_11char_traitsIcEENS_9allocatorIcEEE2atEj' type='func-type' binding='weak-binding' visibility='default-visibility' is-defined='yes'/>
    <elf-symbol name='_ZNSt4__n112basic_stringIcNS_11char_traitsIcEENS_9allocatorIcEEE5eraseEjj' type='func-type' binding='weak-binding' visibility='default-visibility' is-defined='yes'/>
    <elf-symbol name='_ZNSt4__n112basic_stringIcNS_11char_traitsIcEENS_9allocatorIcEEE6__initEPKcj' type='func-type' binding='weak-binding' visibility='default-visibility' is-defined='yes'/>
    <elf-symbol name='_ZNSt4__n112basic_stringIcNS_11char_traitsIcEENS_9allocatorIcEEE6__initEPKcjj' type='func-type' binding='weak-binding' visibility='default-visibility' is-defined='yes'/>
    <elf-symbol name='_ZNSt4__n112basic_stringIcNS_11char_traitsIcEENS_9allocatorIcEEE6__initEjc' type='func-type' binding='weak-binding' visibility='default-visibility' is-defined='yes'/>
    <elf-symbol name='_ZNSt4__n112basic_stringIcNS_11char_traitsIcEENS_9allocatorIcEEE6appendEPKc' type='func-type' binding='weak-binding' visibility='default-visibility' is-defined='yes'/>
    <elf-symbol name='_ZNSt4__n112basic_stringIcNS_11char_traitsIcEENS_9allocatorIcEEE6appendEPKcj' type='func-type' binding='weak-binding' visibility='default-visibility' is-defined='yes'/>
    <elf-symbol name='_ZNSt4__n112basic_stringIcNS_11char_traitsIcEENS_9allocatorIcEEE6appendERKS5_jj' type='func-type' binding='weak-binding' visibility='default-visibility' is-defined='yes'/>
    <elf-symbol name='_ZNSt4__n112basic_stringIcNS_11char_traitsIcEENS_9allocatorIcEEE6appendEjc' type='func-type' binding='weak-binding' visibility='default-visibility' is-defined='yes'/>
    <elf-symbol name='_ZNSt4__n112basic_stringIcNS_11char_traitsIcEENS_9allocatorIcEEE6assignEPKc' type='func-type' binding='weak-binding' visibility='default-visibility' is-defined='yes'/>
    <elf-symbol name='_ZNSt4__n112basic_stringIcNS_11char_traitsIcEENS_9allocatorIcEEE6assignEPKcj' type='func-type' binding='weak-binding' visibility='default-visibility' is-defined='yes'/>
    <elf-symbol name='_ZNSt4__n112basic_stringIcNS_11char_traitsIcEENS_9allocatorIcEEE6assignERKS5_jj' type='func-type' binding='weak-binding' visibility='default-visibility' is-defined='yes'/>
    <elf-symbol name='_ZNSt4__n112basic_stringIcNS_11char_traitsIcEENS_9allocatorIcEEE6assignEjc' type='func-type' binding='weak-binding' visibility='default-visibility' is-defined='yes'/>
    <elf-symbol name='_ZNSt4__n112basic_stringIcNS_11char_traitsIcEENS_9allocatorIcEEE6insertENS_11__wrap_iterIPKcEEc' type='func-type' binding='weak-binding' visibility='default-visibility' is-defined='yes'/>
    <elf-symbol name='_ZNSt4__n112basic_stringIcNS_11char_traitsIcEENS_9allocatorIcEEE6insertEjPKc' type='func-type' binding='weak-binding' visibility='default-visibility' is-defined='yes'/>
    <elf-symbol name='_ZNSt4__n112basic_stringIcNS_11char_traitsIcEENS_9allocatorIcEEE6insertEjPKcj' type='func-type' binding='weak-binding' visibility='default-visibility' is-defined='yes'/>
    <elf-symbol name='_ZNSt4__n112basic_stringIcNS_11char_traitsIcEENS_9allocatorIcEEE6insertEjRKS5_jj' type='func-type' binding='weak-binding' visibility='default-visibility' is-defined='yes'/>
    <elf-symbol name='_ZNSt4__n112basic_stringIcNS_11char_traitsIcEENS_9allocatorIcEEE6insertEjjc' type='func-type' binding='weak-binding' visibility='default-visibility' is-defined='yes'/>
    <elf-symbol name='_ZNSt4__n112basic_stringIcNS_11char_traitsIcEENS_9allocatorIcEEE6resizeEjc' type='func-type' binding='weak-binding' visibility='default-visibility' is-defined='yes'/>
    <elf-symbol name='_ZNSt4__n112basic_stringIcNS_11char_traitsIcEENS_9allocatorIcEEE7replaceEjjPKc' type='func-type' binding='weak-binding' visibility='default-visibility' is-defined='yes'/>
    <elf-symbol name='_ZNSt4__n112basic_stringIcNS_11char_traitsIcEENS_9allocatorIcEEE7replaceEjjPKcj' type='func-type' binding='weak-binding' visibility='default-visibility' is-defined='yes'/>
    <elf-symbol name='_ZNSt4__n112basic_stringIcNS_11char_traitsIcEENS_9allocatorIcEEE7replaceEjjRKS5_jj' type='func-type' binding='weak-binding' visibility='default-visibility' is-defined='yes'/>
    <elf-symbol name='_ZNSt4__n112basic_stringIcNS_11char_traitsIcEENS_9allocatorIcEEE7replaceEjjjc' type='func-type' binding='weak-binding' visibility='default-visibility' is-defined='yes'/>
    <elf-symbol name='_ZNSt4__n112basic_stringIcNS_11char_traitsIcEENS_9allocatorIcEEE7reserveEj' type='func-type' binding='weak-binding' visibility='default-visibility' is-defined='yes'/>
    <elf-symbol name='_ZNSt4__n112basic_stringIcNS_11char_traitsIcEENS_9allocatorIcEEE9__grow_byEjjjjjj' type='func-type' binding='weak-binding' visibility='default-visibility' is-defined='yes'/>
    <elf-symbol name='_ZNSt4__n112basic_stringIcNS_11char_traitsIcEENS_9allocatorIcEEE9push_backEc' type='func-type' binding='weak-binding' visibility='default-visibility' is-defined='yes'/>
    <elf-symbol name='_ZNSt4__n112basic_stringIcNS_11char_traitsIcEENS_9allocatorIcEEEC1ERKS5_' type='func-type' binding='weak-binding' visibility='default-visibility' is-defined='yes'/>
    <elf-symbol name='_ZNSt4__n112basic_stringIcNS_11char_traitsIcEENS_9allocatorIcEEEC1ERKS5_RKS4_' type='func-type' binding='weak-binding' visibility='default-visibility' is-defined='yes'/>
    <elf-symbol name='_ZNSt4__n112basic_stringIcNS_11char_traitsIcEENS_9allocatorIcEEEC1ERKS5_jjRKS4_' type='func-type' binding='weak-binding' visibility='default-visibility' is-defined='yes'/>
    <elf-symbol name='_ZNSt4__n112basic_stringIcNS_11char_traitsIcEENS_9allocatorIcEEEC2ERKS5_' type='func-type' binding='weak-binding' visibility='default-visibility' alias='_ZNSt4__n112basic_stringIcNS_11char_traitsIcEENS_9allocatorIcEEEC1ERKS5_' is-defined='yes'/>
    <elf-symbol name='_ZNSt4__n112basic_stringIcNS_11char_traitsIcEENS_9allocatorIcEEEC2ERKS5_RKS4_' type='func-type' binding='weak-binding' visibility='default-visibility' alias='_ZNSt4__n112basic_stringIcNS_11char_traitsIcEENS_9allocatorIcEEEC1ERKS5_RKS4_' is-defined='yes'/>
    <elf-symbol name='_ZNSt4__n112basic_stringIcNS_11char_traitsIcEENS_9allocatorIcEEEC2ERKS5_jjRKS4_' type='func-type' binding='weak-binding' visibility='default-visibility' alias='_ZNSt4__n112basic_stringIcNS_11char_traitsIcEENS_9allocatorIcEEEC1ERKS5_jjRKS4_' is-defined='yes'/>
    <elf-symbol name='_ZNSt4__n112basic_stringIcNS_11char_traitsIcEENS_9allocatorIcEEED1Ev' type='func-type' binding='weak-binding' visibility='default-visibility' alias='_ZNSt4__n112basic_stringIcNS_11char_traitsIcEENS_9allocatorIcEEED2Ev' is-defined='yes'/>
    <elf-symbol name='_ZNSt4__n112basic_stringIcNS_11char_traitsIcEENS_9allocatorIcEEED2Ev' type='func-type' binding='weak-binding' visibility='default-visibility' is-defined='yes'/>
    <elf-symbol name='_ZNSt4__n112basic_stringIcNS_11char_traitsIcEENS_9allocatorIcEEEaSERKS5_' type='func-type' binding='weak-binding' visibility='default-visibility' is-defined='yes'/>
    <elf-symbol name='_ZNSt4__n112basic_stringIcNS_11char_traitsIcEENS_9allocatorIcEEEaSEc' type='func-type' binding='weak-binding' visibility='default-visibility' is-defined='yes'/>
    <elf-symbol name='_ZNSt4__n112basic_stringIwNS_11char_traitsIwEENS_9allocatorIwEEE21__grow_by_and_replaceEjjjjjjPKw' type='func-type' binding='weak-binding' visibility='default-visibility' is-defined='yes'/>
    <elf-symbol name='_ZNSt4__n112basic_stringIwNS_11char_traitsIwEENS_9allocatorIwEEE2atEj' type='func-type' binding='weak-binding' visibility='default-visibility' is-defined='yes'/>
    <elf-symbol name='_ZNSt4__n112basic_stringIwNS_11char_traitsIwEENS_9allocatorIwEEE5eraseEjj' type='func-type' binding='weak-binding' visibility='default-visibility' is-defined='yes'/>
    <elf-symbol name='_ZNSt4__n112basic_stringIwNS_11char_traitsIwEENS_9allocatorIwEEE6__initEPKwj' type='func-type' binding='weak-binding' visibility='default-visibility' is-defined='yes'/>
    <elf-symbol name='_ZNSt4__n112basic_stringIwNS_11char_traitsIwEENS_9allocatorIwEEE6__initEPKwjj' type='func-type' binding='weak-binding' visibility='default-visibility' is-defined='yes'/>
    <elf-symbol name='_ZNSt4__n112basic_stringIwNS_11char_traitsIwEENS_9allocatorIwEEE6__initEjw' type='func-type' binding='weak-binding' visibility='default-visibility' is-defined='yes'/>
    <elf-symbol name='_ZNSt4__n112basic_stringIwNS_11char_traitsIwEENS_9allocatorIwEEE6appendEPKw' type='func-type' binding='weak-binding' visibility='default-visibility' is-defined='yes'/>
    <elf-symbol name='_ZNSt4__n112basic_stringIwNS_11char_traitsIwEENS_9allocatorIwEEE6appendEPKwj' type='func-type' binding='weak-binding' visibility='default-visibility' is-defined='yes'/>
    <elf-symbol name='_ZNSt4__n112basic_stringIwNS_11char_traitsIwEENS_9allocatorIwEEE6appendERKS5_jj' type='func-type' binding='weak-binding' visibility='default-visibility' is-defined='yes'/>
    <elf-symbol name='_ZNSt4__n112basic_stringIwNS_11char_traitsIwEENS_9allocatorIwEEE6appendEjw' type='func-type' binding='weak-binding' visibility='default-visibility' is-defined='yes'/>
    <elf-symbol name='_ZNSt4__n112basic_stringIwNS_11char_traitsIwEENS_9allocatorIwEEE6assignEPKw' type='func-type' binding='weak-binding' visibility='default-visibility' is-defined='yes'/>
    <elf-symbol name='_ZNSt4__n112basic_stringIwNS_11char_traitsIwEENS_9allocatorIwEEE6assignEPKwj' type='func-type' binding='weak-binding' visibility='default-visibility' is-defined='yes'/>
    <elf-symbol name='_ZNSt4__n112basic_stringIwNS_11char_traitsIwEENS_9allocatorIwEEE6assignERKS5_jj' type='func-type' binding='weak-binding' visibility='default-visibility' is-defined='yes'/>
    <elf-symbol name='_ZNSt4__n112basic_stringIwNS_11char_traitsIwEENS_9allocatorIwEEE6assignEjw' type='func-type' binding='weak-binding' visibility='default-visibility' is-defined='yes'/>
    <elf-symbol name='_ZNSt4__n112basic_stringIwNS_11char_traitsIwEENS_9allocatorIwEEE6insertENS_11__wrap_iterIPKwEEw' type='func-type' binding='weak-binding' visibility='default-visibility' is-defined='yes'/>
    <elf-symbol name='_ZNSt4__n112basic_stringIwNS_11char_traitsIwEENS_9allocatorIwEEE6insertEjPKw' type='func-type' binding='weak-binding' visibility='default-visibility' is-defined='yes'/>
    <elf-symbol name='_ZNSt4__n112basic_stringIwNS_11char_traitsIwEENS_9allocatorIwEEE6insertEjPKwj' type='func-type' binding='weak-binding' visibility='default-visibility' is-defined='yes'/>
    <elf-symbol name='_ZNSt4__n112basic_stringIwNS_11char_traitsIwEENS_9allocatorIwEEE6insertEjRKS5_jj' type='func-type' binding='weak-binding' visibility='default-visibility' is-defined='yes'/>
    <elf-symbol name='_ZNSt4__n112basic_stringIwNS_11char_traitsIwEENS_9allocatorIwEEE6insertEjjw' type='func-type' binding='weak-binding' visibility='default-visibility' is-defined='yes'/>
    <elf-symbol name='_ZNSt4__n112basic_stringIwNS_11char_traitsIwEENS_9allocatorIwEEE6resizeEjw' type='func-type' binding='weak-binding' visibility='default-visibility' is-defined='yes'/>
    <elf-symbol name='_ZNSt4__n112basic_stringIwNS_11char_traitsIwEENS_9allocatorIwEEE7replaceEjjPKw' type='func-type' binding='weak-binding' visibility='default-visibility' is-defined='yes'/>
    <elf-symbol name='_ZNSt4__n112basic_stringIwNS_11char_traitsIwEENS_9allocatorIwEEE7replaceEjjPKwj' type='func-type' binding='weak-binding' visibility='default-visibility' is-defined='yes'/>
    <elf-symbol name='_ZNSt4__n112basic_stringIwNS_11char_traitsIwEENS_9allocatorIwEEE7replaceEjjRKS5_jj' type='func-type' binding='weak-binding' visibility='default-visibility' is-defined='yes'/>
    <elf-symbol name='_ZNSt4__n112basic_stringIwNS_11char_traitsIwEENS_9allocatorIwEEE7replaceEjjjw' type='func-type' binding='weak-binding' visibility='default-visibility' is-defined='yes'/>
    <elf-symbol name='_ZNSt4__n112basic_stringIwNS_11char_traitsIwEENS_9allocatorIwEEE7reserveEj' type='func-type' binding='weak-binding' visibility='default-visibility' is-defined='yes'/>
    <elf-symbol name='_ZNSt4__n112basic_stringIwNS_11char_traitsIwEENS_9allocatorIwEEE9__grow_byEjjjjjj' type='func-type' binding='weak-binding' visibility='default-visibility' is-defined='yes'/>
    <elf-symbol name='_ZNSt4__n112basic_stringIwNS_11char_traitsIwEENS_9allocatorIwEEE9push_backEw' type='func-type' binding='weak-binding' visibility='default-visibility' is-defined='yes'/>
    <elf-symbol name='_ZNSt4__n112basic_stringIwNS_11char_traitsIwEENS_9allocatorIwEEEC1ERKS5_' type='func-type' binding='weak-binding' visibility='default-visibility' is-defined='yes'/>
    <elf-symbol name='_ZNSt4__n112basic_stringIwNS_11char_traitsIwEENS_9allocatorIwEEEC1ERKS5_RKS4_' type='func-type' binding='weak-binding' visibility='default-visibility' is-defined='yes'/>
    <elf-symbol name='_ZNSt4__n112basic_stringIwNS_11char_traitsIwEENS_9allocatorIwEEEC1ERKS5_jjRKS4_' type='func-type' binding='weak-binding' visibility='default-visibility' is-defined='yes'/>
    <elf-symbol name='_ZNSt4__n112basic_stringIwNS_11char_traitsIwEENS_9allocatorIwEEEC2ERKS5_' type='func-type' binding='weak-binding' visibility='default-visibility' alias='_ZNSt4__n112basic_stringIwNS_11char_traitsIwEENS_9allocatorIwEEEC1ERKS5_' is-defined='yes'/>
    <elf-symbol name='_ZNSt4__n112basic_stringIwNS_11char_traitsIwEENS_9allocatorIwEEEC2ERKS5_RKS4_' type='func-type' binding='weak-binding' visibility='default-visibility' alias='_ZNSt4__n112basic_stringIwNS_11char_traitsIwEENS_9allocatorIwEEEC1ERKS5_RKS4_' is-defined='yes'/>
    <elf-symbol name='_ZNSt4__n112basic_stringIwNS_11char_traitsIwEENS_9allocatorIwEEEC2ERKS5_jjRKS4_' type='func-type' binding='weak-binding' visibility='default-visibility' alias='_ZNSt4__n112basic_stringIwNS_11char_traitsIwEENS_9allocatorIwEEEC1ERKS5_jjRKS4_' is-defined='yes'/>
    <elf-symbol name='_ZNSt4__n112basic_stringIwNS_11char_traitsIwEENS_9allocatorIwEEED1Ev' type='func-type' binding='weak-binding' visibility='default-visibility' alias='_ZNSt4__n112basic_stringIwNS_11char_traitsIwEENS_9allocatorIwEEED2Ev' is-defined='yes'/>
    <elf-symbol name='_ZNSt4__n112basic_stringIwNS_11char_traitsIwEENS_9allocatorIwEEED2Ev' type='func-type' binding='weak-binding' visibility='default-visibility' is-defined='yes'/>
    <elf-symbol name='_ZNSt4__n112basic_stringIwNS_11char_traitsIwEENS_9allocatorIwEEEaSERKS5_' type='func-type' binding='weak-binding' visibility='default-visibility' is-defined='yes'/>
    <elf-symbol name='_ZNSt4__n112basic_stringIwNS_11char_traitsIwEENS_9allocatorIwEEEaSEw' type='func-type' binding='weak-binding' visibility='default-visibility' is-defined='yes'/>
    <elf-symbol name='_ZNSt4__n112ctype_bynameIcEC1EPKcj' type='func-type' binding='global-binding' visibility='default-visibility' alias='_ZNSt4__n112ctype_bynameIcEC2EPKcj' is-defined='yes'/>
    <elf-symbol name='_ZNSt4__n112ctype_bynameIcEC1ERKNS_12basic_stringIcNS_11char_traitsIcEENS_9allocatorIcEEEEj' type='func-type' binding='global-binding' visibility='default-visibility' alias='_ZNSt4__n112ctype_bynameIcEC2ERKNS_12basic_stringIcNS_11char_traitsIcEENS_9allocatorIcEEEEj' is-defined='yes'/>
    <elf-symbol name='_ZNSt4__n112ctype_bynameIcEC2EPKcj' type='func-type' binding='global-binding' visibility='default-visibility' is-defined='yes'/>
    <elf-symbol name='_ZNSt4__n112ctype_bynameIcEC2ERKNS_12basic_stringIcNS_11char_traitsIcEENS_9allocatorIcEEEEj' type='func-type' binding='global-binding' visibility='default-visibility' is-defined='yes'/>
    <elf-symbol name='_ZNSt4__n112ctype_bynameIcED0Ev' type='func-type' binding='global-binding' visibility='default-visibility' is-defined='yes'/>
    <elf-symbol name='_ZNSt4__n112ctype_bynameIcED1Ev' type='func-type' binding='global-binding' visibility='default-visibility' alias='_ZNSt4__n112ctype_bynameIcED2Ev' is-defined='yes'/>
    <elf-symbol name='_ZNSt4__n112ctype_bynameIcED2Ev' type='func-type' binding='global-binding' visibility='default-visibility' is-defined='yes'/>
    <elf-symbol name='_ZNSt4__n112ctype_bynameIwEC1EPKcj' type='func-type' binding='global-binding' visibility='default-visibility' alias='_ZNSt4__n112ctype_bynameIwEC2EPKcj' is-defined='yes'/>
    <elf-symbol name='_ZNSt4__n112ctype_bynameIwEC1ERKNS_12basic_stringIcNS_11char_traitsIcEENS_9allocatorIcEEEEj' type='func-type' binding='global-binding' visibility='default-visibility' is-defined='yes'/>
    <elf-symbol name='_ZNSt4__n112ctype_bynameIwEC2EPKcj' type='func-type' binding='global-binding' visibility='default-visibility' is-defined='yes'/>
    <elf-symbol name='_ZNSt4__n112ctype_bynameIwEC2ERKNS_12basic_stringIcNS_11char_traitsIcEENS_9allocatorIcEEEEj' type='func-type' binding='global-binding' visibility='default-visibility' alias='_ZNSt4__n112ctype_bynameIwEC1ERKNS_12basic_stringIcNS_11char_traitsIcEENS_9allocatorIcEEEEj' is-defined='yes'/>
    <elf-symbol name='_ZNSt4__n112ctype_bynameIwED0Ev' type='func-type' binding='global-binding' visibility='default-visibility' is-defined='yes'/>
    <elf-symbol name='_ZNSt4__n112ctype_bynameIwED1Ev' type='func-type' binding='global-binding' visibility='default-visibility' alias='_ZNSt4__n112ctype_bynameIwED2Ev' is-defined='yes'/>
    <elf-symbol name='_ZNSt4__n112ctype_bynameIwED2Ev' type='func-type' binding='global-binding' visibility='default-visibility' is-defined='yes'/>
    <elf-symbol name='_ZNSt4__n112future_errorC1ENS_10error_codeE' type='func-type' binding='global-binding' visibility='default-visibility' is-defined='yes'/>
    <elf-symbol name='_ZNSt4__n112future_errorC2ENS_10error_codeE' type='func-type' binding='global-binding' visibility='default-visibility' alias='_ZNSt4__n112future_errorC1ENS_10error_codeE' is-defined='yes'/>
    <elf-symbol name='_ZNSt4__n112future_errorD0Ev' type='func-type' binding='global-binding' visibility='default-visibility' is-defined='yes'/>
    <elf-symbol name='_ZNSt4__n112future_errorD1Ev' type='func-type' binding='global-binding' visibility='default-visibility' is-defined='yes'/>
    <elf-symbol name='_ZNSt4__n112future_errorD2Ev' type='func-type' binding='global-binding' visibility='default-visibility' alias='_ZNSt4__n112future_errorD1Ev' is-defined='yes'/>
    <elf-symbol name='_ZNSt4__n112strstreambuf3strEv' type='func-type' binding='global-binding' visibility='default-visibility' is-defined='yes'/>
    <elf-symbol name='_ZNSt4__n112strstreambuf4swapERS0_' type='func-type' binding='global-binding' visibility='default-visibility' is-defined='yes'/>
    <elf-symbol name='_ZNSt4__n112strstreambuf6__initEPciS1_' type='func-type' binding='global-binding' visibility='default-visibility' is-defined='yes'/>
    <elf-symbol name='_ZNSt4__n112strstreambuf6freezeEb' type='func-type' binding='global-binding' visibility='default-visibility' is-defined='yes'/>
    <elf-symbol name='_ZNSt4__n112strstreambuf7seekoffExNS_8ios_base7seekdirEj' type='func-type' binding='global-binding' visibility='default-visibility' is-defined='yes'/>
    <elf-symbol name='_ZNSt4__n112strstreambuf7seekposENS_4fposI11__mbstate_tEEj' type='func-type' binding='global-binding' visibility='default-visibility' is-defined='yes'/>
    <elf-symbol name='_ZNSt4__n112strstreambuf8overflowEi' type='func-type' binding='global-binding' visibility='default-visibility' is-defined='yes'/>
    <elf-symbol name='_ZNSt4__n112strstreambuf9pbackfailEi' type='func-type' binding='global-binding' visibility='default-visibility' is-defined='yes'/>
    <elf-symbol name='_ZNSt4__n112strstreambuf9underflowEv' type='func-type' binding='global-binding' visibility='default-visibility' is-defined='yes'/>
    <elf-symbol name='_ZNSt4__n112strstreambufC1EPFPvjEPFvS1_E' type='func-type' binding='global-binding' visibility='default-visibility' is-defined='yes'/>
    <elf-symbol name='_ZNSt4__n112strstreambufC1EPKai' type='func-type' binding='global-binding' visibility='default-visibility' is-defined='yes'/>
    <elf-symbol name='_ZNSt4__n112strstreambufC1EPKci' type='func-type' binding='global-binding' visibility='default-visibility' is-defined='yes'/>
    <elf-symbol name='_ZNSt4__n112strstreambufC1EPKhi' type='func-type' binding='global-binding' visibility='default-visibility' is-defined='yes'/>
    <elf-symbol name='_ZNSt4__n112strstreambufC1EPaiS1_' type='func-type' binding='global-binding' visibility='default-visibility' is-defined='yes'/>
    <elf-symbol name='_ZNSt4__n112strstreambufC1EPciS1_' type='func-type' binding='global-binding' visibility='default-visibility' is-defined='yes'/>
    <elf-symbol name='_ZNSt4__n112strstreambufC1EPhiS1_' type='func-type' binding='global-binding' visibility='default-visibility' is-defined='yes'/>
    <elf-symbol name='_ZNSt4__n112strstreambufC1Ei' type='func-type' binding='global-binding' visibility='default-visibility' is-defined='yes'/>
    <elf-symbol name='_ZNSt4__n112strstreambufC2EPFPvjEPFvS1_E' type='func-type' binding='global-binding' visibility='default-visibility' alias='_ZNSt4__n112strstreambufC1EPFPvjEPFvS1_E' is-defined='yes'/>
    <elf-symbol name='_ZNSt4__n112strstreambufC2EPKai' type='func-type' binding='global-binding' visibility='default-visibility' alias='_ZNSt4__n112strstreambufC1EPKai' is-defined='yes'/>
    <elf-symbol name='_ZNSt4__n112strstreambufC2EPKci' type='func-type' binding='global-binding' visibility='default-visibility' alias='_ZNSt4__n112strstreambufC1EPKci' is-defined='yes'/>
    <elf-symbol name='_ZNSt4__n112strstreambufC2EPKhi' type='func-type' binding='global-binding' visibility='default-visibility' alias='_ZNSt4__n112strstreambufC1EPKhi' is-defined='yes'/>
    <elf-symbol name='_ZNSt4__n112strstreambufC2EPaiS1_' type='func-type' binding='global-binding' visibility='default-visibility' alias='_ZNSt4__n112strstreambufC1EPaiS1_' is-defined='yes'/>
    <elf-symbol name='_ZNSt4__n112strstreambufC2EPciS1_' type='func-type' binding='global-binding' visibility='default-visibility' alias='_ZNSt4__n112strstreambufC1EPciS1_' is-defined='yes'/>
    <elf-symbol name='_ZNSt4__n112strstreambufC2EPhiS1_' type='func-type' binding='global-binding' visibility='default-visibility' alias='_ZNSt4__n112strstreambufC1EPhiS1_' is-defined='yes'/>
    <elf-symbol name='_ZNSt4__n112strstreambufC2Ei' type='func-type' binding='global-binding' visibility='default-visibility' alias='_ZNSt4__n112strstreambufC1Ei' is-defined='yes'/>
    <elf-symbol name='_ZNSt4__n112strstreambufD0Ev' type='func-type' binding='global-binding' visibility='default-visibility' is-defined='yes'/>
    <elf-symbol name='_ZNSt4__n112strstreambufD1Ev' type='func-type' binding='global-binding' visibility='default-visibility' is-defined='yes'/>
    <elf-symbol name='_ZNSt4__n112strstreambufD2Ev' type='func-type' binding='global-binding' visibility='default-visibility' alias='_ZNSt4__n112strstreambufD1Ev' is-defined='yes'/>
    <elf-symbol name='_ZNSt4__n112system_error6__initERKNS_10error_codeENS_12basic_stringIcNS_11char_traitsIcEENS_9allocatorIcEEEE' type='func-type' binding='global-binding' visibility='default-visibility' is-defined='yes'/>
    <elf-symbol name='_ZNSt4__n112system_errorC1ENS_10error_codeE' type='func-type' binding='global-binding' visibility='default-visibility' is-defined='yes'/>
    <elf-symbol name='_ZNSt4__n112system_errorC1ENS_10error_codeEPKc' type='func-type' binding='global-binding' visibility='default-visibility' alias='_ZNSt4__n112system_errorC2ENS_10error_codeEPKc' is-defined='yes'/>
    <elf-symbol name='_ZNSt4__n112system_errorC1ENS_10error_codeERKNS_12basic_stringIcNS_11char_traitsIcEENS_9allocatorIcEEEE' type='func-type' binding='global-binding' visibility='default-visibility' alias='_ZNSt4__n112system_errorC2ENS_10error_codeERKNS_12basic_stringIcNS_11char_traitsIcEENS_9allocatorIcEEEE' is-defined='yes'/>
    <elf-symbol name='_ZNSt4__n112system_errorC1EiRKNS_14error_categoryE' type='func-type' binding='global-binding' visibility='default-visibility' is-defined='yes'/>
    <elf-symbol name='_ZNSt4__n112system_errorC1EiRKNS_14error_categoryEPKc' type='func-type' binding='global-binding' visibility='default-visibility' is-defined='yes'/>
    <elf-symbol name='_ZNSt4__n112system_errorC1EiRKNS_14error_categoryERKNS_12basic_stringIcNS_11char_traitsIcEENS_9allocatorIcEEEE' type='func-type' binding='global-binding' visibility='default-visibility' is-defined='yes'/>
    <elf-symbol name='_ZNSt4__n112system_errorC2ENS_10error_codeE' type='func-type' binding='global-binding' visibility='default-visibility' alias='_ZNSt4__n112system_errorC1ENS_10error_codeE' is-defined='yes'/>
    <elf-symbol name='_ZNSt4__n112system_errorC2ENS_10error_codeEPKc' type='func-type' binding='global-binding' visibility='default-visibility' is-defined='yes'/>
    <elf-symbol name='_ZNSt4__n112system_errorC2ENS_10error_codeERKNS_12basic_stringIcNS_11char_traitsIcEENS_9allocatorIcEEEE' type='func-type' binding='global-binding' visibility='default-visibility' is-defined='yes'/>
    <elf-symbol name='_ZNSt4__n112system_errorC2EiRKNS_14error_categoryE' type='func-type' binding='global-binding' visibility='default-visibility' alias='_ZNSt4__n112system_errorC1EiRKNS_14error_categoryE' is-defined='yes'/>
    <elf-symbol name='_ZNSt4__n112system_errorC2EiRKNS_14error_categoryEPKc' type='func-type' binding='global-binding' visibility='default-visibility' alias='_ZNSt4__n112system_errorC1EiRKNS_14error_categoryEPKc' is-defined='yes'/>
    <elf-symbol name='_ZNSt4__n112system_errorC2EiRKNS_14error_categoryERKNS_12basic_stringIcNS_11char_traitsIcEENS_9allocatorIcEEEE' type='func-type' binding='global-binding' visibility='default-visibility' alias='_ZNSt4__n112system_errorC1EiRKNS_14error_categoryERKNS_12basic_stringIcNS_11char_traitsIcEENS_9allocatorIcEEEE' is-defined='yes'/>
    <elf-symbol name='_ZNSt4__n112system_errorD0Ev' type='func-type' binding='global-binding' visibility='default-visibility' is-defined='yes'/>
    <elf-symbol name='_ZNSt4__n112system_errorD1Ev' type='func-type' binding='global-binding' visibility='default-visibility' alias='_ZNSt4__n112system_errorD2Ev' is-defined='yes'/>
    <elf-symbol name='_ZNSt4__n112system_errorD2Ev' type='func-type' binding='global-binding' visibility='default-visibility' is-defined='yes'/>
    <elf-symbol name='_ZNSt4__n113basic_filebufIcNS_11char_traitsIcEEE11__read_modeEv' type='func-type' binding='weak-binding' visibility='default-visibility' is-defined='yes'/>
    <elf-symbol name='_ZNSt4__n113basic_filebufIcNS_11char_traitsIcEEE12__write_modeEv' type='func-type' binding='weak-binding' visibility='default-visibility' is-defined='yes'/>
    <elf-symbol name='_ZNSt4__n113basic_filebufIcNS_11char_traitsIcEEE4openEPKcj' type='func-type' binding='weak-binding' visibility='default-visibility' is-defined='yes'/>
    <elf-symbol name='_ZNSt4__n113basic_filebufIcNS_11char_traitsIcEEE4swapERS3_' type='func-type' binding='weak-binding' visibility='default-visibility' is-defined='yes'/>
    <elf-symbol name='_ZNSt4__n113basic_filebufIcNS_11char_traitsIcEEE4syncEv' type='func-type' binding='weak-binding' visibility='default-visibility' is-defined='yes'/>
    <elf-symbol name='_ZNSt4__n113basic_filebufIcNS_11char_traitsIcEEE5closeEv' type='func-type' binding='weak-binding' visibility='default-visibility' is-defined='yes'/>
    <elf-symbol name='_ZNSt4__n113basic_filebufIcNS_11char_traitsIcEEE5imbueERKNS_6localeE' type='func-type' binding='weak-binding' visibility='default-visibility' is-defined='yes'/>
    <elf-symbol name='_ZNSt4__n113basic_filebufIcNS_11char_traitsIcEEE6setbufEPci' type='func-type' binding='weak-binding' visibility='default-visibility' is-defined='yes'/>
    <elf-symbol name='_ZNSt4__n113basic_filebufIcNS_11char_traitsIcEEE7seekoffExNS_8ios_base7seekdirEj' type='func-type' binding='weak-binding' visibility='default-visibility' is-defined='yes'/>
    <elf-symbol name='_ZNSt4__n113basic_filebufIcNS_11char_traitsIcEEE7seekposENS_4fposI11__mbstate_tEEj' type='func-type' binding='weak-binding' visibility='default-visibility' is-defined='yes'/>
    <elf-symbol name='_ZNSt4__n113basic_filebufIcNS_11char_traitsIcEEE8overflowEi' type='func-type' binding='weak-binding' visibility='default-visibility' is-defined='yes'/>
    <elf-symbol name='_ZNSt4__n113basic_filebufIcNS_11char_traitsIcEEE9pbackfailEi' type='func-type' binding='weak-binding' visibility='default-visibility' is-defined='yes'/>
    <elf-symbol name='_ZNSt4__n113basic_filebufIcNS_11char_traitsIcEEE9underflowEv' type='func-type' binding='weak-binding' visibility='default-visibility' is-defined='yes'/>
    <elf-symbol name='_ZNSt4__n113basic_filebufIcNS_11char_traitsIcEEEC1EOS3_' type='func-type' binding='weak-binding' visibility='default-visibility' is-defined='yes'/>
    <elf-symbol name='_ZNSt4__n113basic_filebufIcNS_11char_traitsIcEEEC1Ev' type='func-type' binding='weak-binding' visibility='default-visibility' is-defined='yes'/>
    <elf-symbol name='_ZNSt4__n113basic_filebufIcNS_11char_traitsIcEEEC2EOS3_' type='func-type' binding='weak-binding' visibility='default-visibility' alias='_ZNSt4__n113basic_filebufIcNS_11char_traitsIcEEEC1EOS3_' is-defined='yes'/>
    <elf-symbol name='_ZNSt4__n113basic_filebufIcNS_11char_traitsIcEEEC2Ev' type='func-type' binding='weak-binding' visibility='default-visibility' alias='_ZNSt4__n113basic_filebufIcNS_11char_traitsIcEEEC1Ev' is-defined='yes'/>
    <elf-symbol name='_ZNSt4__n113basic_filebufIcNS_11char_traitsIcEEED0Ev' type='func-type' binding='weak-binding' visibility='default-visibility' is-defined='yes'/>
    <elf-symbol name='_ZNSt4__n113basic_filebufIcNS_11char_traitsIcEEED1Ev' type='func-type' binding='weak-binding' visibility='default-visibility' is-defined='yes'/>
    <elf-symbol name='_ZNSt4__n113basic_filebufIcNS_11char_traitsIcEEED2Ev' type='func-type' binding='weak-binding' visibility='default-visibility' alias='_ZNSt4__n113basic_filebufIcNS_11char_traitsIcEEED1Ev' is-defined='yes'/>
    <elf-symbol name='_ZNSt4__n113basic_istreamIcNS_11char_traitsIcEEE3getEPci' type='func-type' binding='weak-binding' visibility='default-visibility' is-defined='yes'/>
    <elf-symbol name='_ZNSt4__n113basic_istreamIcNS_11char_traitsIcEEE3getEPcic' type='func-type' binding='weak-binding' visibility='default-visibility' is-defined='yes'/>
    <elf-symbol name='_ZNSt4__n113basic_istreamIcNS_11char_traitsIcEEE3getERNS_15basic_streambufIcS2_EE' type='func-type' binding='weak-binding' visibility='default-visibility' is-defined='yes'/>
    <elf-symbol name='_ZNSt4__n113basic_istreamIcNS_11char_traitsIcEEE3getERNS_15basic_streambufIcS2_EEc' type='func-type' binding='weak-binding' visibility='default-visibility' is-defined='yes'/>
    <elf-symbol name='_ZNSt4__n113basic_istreamIcNS_11char_traitsIcEEE3getERc' type='func-type' binding='weak-binding' visibility='default-visibility' is-defined='yes'/>
    <elf-symbol name='_ZNSt4__n113basic_istreamIcNS_11char_traitsIcEEE3getEv' type='func-type' binding='weak-binding' visibility='default-visibility' is-defined='yes'/>
    <elf-symbol name='_ZNSt4__n113basic_istreamIcNS_11char_traitsIcEEE4peekEv' type='func-type' binding='weak-binding' visibility='default-visibility' is-defined='yes'/>
    <elf-symbol name='_ZNSt4__n113basic_istreamIcNS_11char_traitsIcEEE4readEPci' type='func-type' binding='weak-binding' visibility='default-visibility' is-defined='yes'/>
    <elf-symbol name='_ZNSt4__n113basic_istreamIcNS_11char_traitsIcEEE4swapERS3_' type='func-type' binding='weak-binding' visibility='default-visibility' is-defined='yes'/>
    <elf-symbol name='_ZNSt4__n113basic_istreamIcNS_11char_traitsIcEEE4syncEv' type='func-type' binding='weak-binding' visibility='default-visibility' is-defined='yes'/>
    <elf-symbol name='_ZNSt4__n113basic_istreamIcNS_11char_traitsIcEEE5seekgENS_4fposI11__mbstate_tEE' type='func-type' binding='weak-binding' visibility='default-visibility' is-defined='yes'/>
    <elf-symbol name='_ZNSt4__n113basic_istreamIcNS_11char_traitsIcEEE5seekgExNS_8ios_base7seekdirE' type='func-type' binding='weak-binding' visibility='default-visibility' is-defined='yes'/>
    <elf-symbol name='_ZNSt4__n113basic_istreamIcNS_11char_traitsIcEEE5tellgEv' type='func-type' binding='weak-binding' visibility='default-visibility' is-defined='yes'/>
    <elf-symbol name='_ZNSt4__n113basic_istreamIcNS_11char_traitsIcEEE5ungetEv' type='func-type' binding='weak-binding' visibility='default-visibility' is-defined='yes'/>
    <elf-symbol name='_ZNSt4__n113basic_istreamIcNS_11char_traitsIcEEE6ignoreEii' type='func-type' binding='weak-binding' visibility='default-visibility' is-defined='yes'/>
    <elf-symbol name='_ZNSt4__n113basic_istreamIcNS_11char_traitsIcEEE6sentryC1ERS3_b' type='func-type' binding='weak-binding' visibility='default-visibility' is-defined='yes'/>
    <elf-symbol name='_ZNSt4__n113basic_istreamIcNS_11char_traitsIcEEE6sentryC2ERS3_b' type='func-type' binding='weak-binding' visibility='default-visibility' alias='_ZNSt4__n113basic_istreamIcNS_11char_traitsIcEEE6sentryC1ERS3_b' is-defined='yes'/>
    <elf-symbol name='_ZNSt4__n113basic_istreamIcNS_11char_traitsIcEEE7getlineEPci' type='func-type' binding='weak-binding' visibility='default-visibility' is-defined='yes'/>
    <elf-symbol name='_ZNSt4__n113basic_istreamIcNS_11char_traitsIcEEE7getlineEPcic' type='func-type' binding='weak-binding' visibility='default-visibility' is-defined='yes'/>
    <elf-symbol name='_ZNSt4__n113basic_istreamIcNS_11char_traitsIcEEE7putbackEc' type='func-type' binding='weak-binding' visibility='default-visibility' is-defined='yes'/>
    <elf-symbol name='_ZNSt4__n113basic_istreamIcNS_11char_traitsIcEEE8readsomeEPci' type='func-type' binding='weak-binding' visibility='default-visibility' is-defined='yes'/>
    <elf-symbol name='_ZNSt4__n113basic_istreamIcNS_11char_traitsIcEEEC1EPNS_15basic_streambufIcS2_EE' type='func-type' binding='weak-binding' visibility='default-visibility' is-defined='yes'/>
    <elf-symbol name='_ZNSt4__n113basic_istreamIcNS_11char_traitsIcEEEC2EPNS_15basic_streambufIcS2_EE' type='func-type' binding='weak-binding' visibility='default-visibility' is-defined='yes'/>
    <elf-symbol name='_ZNSt4__n113basic_istreamIcNS_11char_traitsIcEEED0Ev' type='func-type' binding='weak-binding' visibility='default-visibility' is-defined='yes'/>
    <elf-symbol name='_ZNSt4__n113basic_istreamIcNS_11char_traitsIcEEED1Ev' type='func-type' binding='weak-binding' visibility='default-visibility' is-defined='yes'/>
    <elf-symbol name='_ZNSt4__n113basic_istreamIcNS_11char_traitsIcEEED2Ev' type='func-type' binding='weak-binding' visibility='default-visibility' is-defined='yes'/>
    <elf-symbol name='_ZNSt4__n113basic_istreamIcNS_11char_traitsIcEEErsEPFRNS_8ios_baseES5_E' type='func-type' binding='weak-binding' visibility='default-visibility' is-defined='yes'/>
    <elf-symbol name='_ZNSt4__n113basic_istreamIcNS_11char_traitsIcEEErsEPFRNS_9basic_iosIcS2_EES6_E' type='func-type' binding='weak-binding' visibility='default-visibility' is-defined='yes'/>
    <elf-symbol name='_ZNSt4__n113basic_istreamIcNS_11char_traitsIcEEErsEPFRS3_S4_E' type='func-type' binding='weak-binding' visibility='default-visibility' is-defined='yes'/>
    <elf-symbol name='_ZNSt4__n113basic_istreamIcNS_11char_traitsIcEEErsEPNS_15basic_streambufIcS2_EE' type='func-type' binding='weak-binding' visibility='default-visibility' is-defined='yes'/>
    <elf-symbol name='_ZNSt4__n113basic_istreamIcNS_11char_traitsIcEEErsERPv' type='func-type' binding='weak-binding' visibility='default-visibility' is-defined='yes'/>
    <elf-symbol name='_ZNSt4__n113basic_istreamIcNS_11char_traitsIcEEErsERb' type='func-type' binding='weak-binding' visibility='default-visibility' is-defined='yes'/>
    <elf-symbol name='_ZNSt4__n113basic_istreamIcNS_11char_traitsIcEEErsERd' type='func-type' binding='weak-binding' visibility='default-visibility' is-defined='yes'/>
    <elf-symbol name='_ZNSt4__n113basic_istreamIcNS_11char_traitsIcEEErsERe' type='func-type' binding='weak-binding' visibility='default-visibility' is-defined='yes'/>
    <elf-symbol name='_ZNSt4__n113basic_istreamIcNS_11char_traitsIcEEErsERf' type='func-type' binding='weak-binding' visibility='default-visibility' is-defined='yes'/>
    <elf-symbol name='_ZNSt4__n113basic_istreamIcNS_11char_traitsIcEEErsERi' type='func-type' binding='weak-binding' visibility='default-visibility' is-defined='yes'/>
    <elf-symbol name='_ZNSt4__n113basic_istreamIcNS_11char_traitsIcEEErsERj' type='func-type' binding='weak-binding' visibility='default-visibility' is-defined='yes'/>
    <elf-symbol name='_ZNSt4__n113basic_istreamIcNS_11char_traitsIcEEErsERl' type='func-type' binding='weak-binding' visibility='default-visibility' is-defined='yes'/>
    <elf-symbol name='_ZNSt4__n113basic_istreamIcNS_11char_traitsIcEEErsERm' type='func-type' binding='weak-binding' visibility='default-visibility' is-defined='yes'/>
    <elf-symbol name='_ZNSt4__n113basic_istreamIcNS_11char_traitsIcEEErsERs' type='func-type' binding='weak-binding' visibility='default-visibility' is-defined='yes'/>
    <elf-symbol name='_ZNSt4__n113basic_istreamIcNS_11char_traitsIcEEErsERt' type='func-type' binding='weak-binding' visibility='default-visibility' is-defined='yes'/>
    <elf-symbol name='_ZNSt4__n113basic_istreamIcNS_11char_traitsIcEEErsERx' type='func-type' binding='weak-binding' visibility='default-visibility' is-defined='yes'/>
    <elf-symbol name='_ZNSt4__n113basic_istreamIcNS_11char_traitsIcEEErsERy' type='func-type' binding='weak-binding' visibility='default-visibility' is-defined='yes'/>
    <elf-symbol name='_ZNSt4__n113basic_istreamIwNS_11char_traitsIwEEE3getEPwi' type='func-type' binding='weak-binding' visibility='default-visibility' is-defined='yes'/>
    <elf-symbol name='_ZNSt4__n113basic_istreamIwNS_11char_traitsIwEEE3getEPwiw' type='func-type' binding='weak-binding' visibility='default-visibility' is-defined='yes'/>
    <elf-symbol name='_ZNSt4__n113basic_istreamIwNS_11char_traitsIwEEE3getERNS_15basic_streambufIwS2_EE' type='func-type' binding='weak-binding' visibility='default-visibility' is-defined='yes'/>
    <elf-symbol name='_ZNSt4__n113basic_istreamIwNS_11char_traitsIwEEE3getERNS_15basic_streambufIwS2_EEw' type='func-type' binding='weak-binding' visibility='default-visibility' is-defined='yes'/>
    <elf-symbol name='_ZNSt4__n113basic_istreamIwNS_11char_traitsIwEEE3getERw' type='func-type' binding='weak-binding' visibility='default-visibility' is-defined='yes'/>
    <elf-symbol name='_ZNSt4__n113basic_istreamIwNS_11char_traitsIwEEE3getEv' type='func-type' binding='weak-binding' visibility='default-visibility' is-defined='yes'/>
    <elf-symbol name='_ZNSt4__n113basic_istreamIwNS_11char_traitsIwEEE4peekEv' type='func-type' binding='weak-binding' visibility='default-visibility' is-defined='yes'/>
    <elf-symbol name='_ZNSt4__n113basic_istreamIwNS_11char_traitsIwEEE4readEPwi' type='func-type' binding='weak-binding' visibility='default-visibility' is-defined='yes'/>
    <elf-symbol name='_ZNSt4__n113basic_istreamIwNS_11char_traitsIwEEE4swapERS3_' type='func-type' binding='weak-binding' visibility='default-visibility' is-defined='yes'/>
    <elf-symbol name='_ZNSt4__n113basic_istreamIwNS_11char_traitsIwEEE4syncEv' type='func-type' binding='weak-binding' visibility='default-visibility' is-defined='yes'/>
    <elf-symbol name='_ZNSt4__n113basic_istreamIwNS_11char_traitsIwEEE5seekgENS_4fposI11__mbstate_tEE' type='func-type' binding='weak-binding' visibility='default-visibility' is-defined='yes'/>
    <elf-symbol name='_ZNSt4__n113basic_istreamIwNS_11char_traitsIwEEE5seekgExNS_8ios_base7seekdirE' type='func-type' binding='weak-binding' visibility='default-visibility' is-defined='yes'/>
    <elf-symbol name='_ZNSt4__n113basic_istreamIwNS_11char_traitsIwEEE5tellgEv' type='func-type' binding='weak-binding' visibility='default-visibility' is-defined='yes'/>
    <elf-symbol name='_ZNSt4__n113basic_istreamIwNS_11char_traitsIwEEE5ungetEv' type='func-type' binding='weak-binding' visibility='default-visibility' is-defined='yes'/>
    <elf-symbol name='_ZNSt4__n113basic_istreamIwNS_11char_traitsIwEEE6ignoreEij' type='func-type' binding='weak-binding' visibility='default-visibility' is-defined='yes'/>
    <elf-symbol name='_ZNSt4__n113basic_istreamIwNS_11char_traitsIwEEE6sentryC1ERS3_b' type='func-type' binding='weak-binding' visibility='default-visibility' is-defined='yes'/>
    <elf-symbol name='_ZNSt4__n113basic_istreamIwNS_11char_traitsIwEEE6sentryC2ERS3_b' type='func-type' binding='weak-binding' visibility='default-visibility' alias='_ZNSt4__n113basic_istreamIwNS_11char_traitsIwEEE6sentryC1ERS3_b' is-defined='yes'/>
    <elf-symbol name='_ZNSt4__n113basic_istreamIwNS_11char_traitsIwEEE7getlineEPwi' type='func-type' binding='weak-binding' visibility='default-visibility' is-defined='yes'/>
    <elf-symbol name='_ZNSt4__n113basic_istreamIwNS_11char_traitsIwEEE7getlineEPwiw' type='func-type' binding='weak-binding' visibility='default-visibility' is-defined='yes'/>
    <elf-symbol name='_ZNSt4__n113basic_istreamIwNS_11char_traitsIwEEE7putbackEw' type='func-type' binding='weak-binding' visibility='default-visibility' is-defined='yes'/>
    <elf-symbol name='_ZNSt4__n113basic_istreamIwNS_11char_traitsIwEEE8readsomeEPwi' type='func-type' binding='weak-binding' visibility='default-visibility' is-defined='yes'/>
    <elf-symbol name='_ZNSt4__n113basic_istreamIwNS_11char_traitsIwEEEC1EPNS_15basic_streambufIwS2_EE' type='func-type' binding='weak-binding' visibility='default-visibility' is-defined='yes'/>
    <elf-symbol name='_ZNSt4__n113basic_istreamIwNS_11char_traitsIwEEEC2EPNS_15basic_streambufIwS2_EE' type='func-type' binding='weak-binding' visibility='default-visibility' is-defined='yes'/>
    <elf-symbol name='_ZNSt4__n113basic_istreamIwNS_11char_traitsIwEEED0Ev' type='func-type' binding='weak-binding' visibility='default-visibility' is-defined='yes'/>
    <elf-symbol name='_ZNSt4__n113basic_istreamIwNS_11char_traitsIwEEED1Ev' type='func-type' binding='weak-binding' visibility='default-visibility' is-defined='yes'/>
    <elf-symbol name='_ZNSt4__n113basic_istreamIwNS_11char_traitsIwEEED2Ev' type='func-type' binding='weak-binding' visibility='default-visibility' is-defined='yes'/>
    <elf-symbol name='_ZNSt4__n113basic_istreamIwNS_11char_traitsIwEEErsEPFRNS_8ios_baseES5_E' type='func-type' binding='weak-binding' visibility='default-visibility' is-defined='yes'/>
    <elf-symbol name='_ZNSt4__n113basic_istreamIwNS_11char_traitsIwEEErsEPFRNS_9basic_iosIwS2_EES6_E' type='func-type' binding='weak-binding' visibility='default-visibility' is-defined='yes'/>
    <elf-symbol name='_ZNSt4__n113basic_istreamIwNS_11char_traitsIwEEErsEPFRS3_S4_E' type='func-type' binding='weak-binding' visibility='default-visibility' is-defined='yes'/>
    <elf-symbol name='_ZNSt4__n113basic_istreamIwNS_11char_traitsIwEEErsEPNS_15basic_streambufIwS2_EE' type='func-type' binding='weak-binding' visibility='default-visibility' is-defined='yes'/>
    <elf-symbol name='_ZNSt4__n113basic_istreamIwNS_11char_traitsIwEEErsERPv' type='func-type' binding='weak-binding' visibility='default-visibility' is-defined='yes'/>
    <elf-symbol name='_ZNSt4__n113basic_istreamIwNS_11char_traitsIwEEErsERb' type='func-type' binding='weak-binding' visibility='default-visibility' is-defined='yes'/>
    <elf-symbol name='_ZNSt4__n113basic_istreamIwNS_11char_traitsIwEEErsERd' type='func-type' binding='weak-binding' visibility='default-visibility' is-defined='yes'/>
    <elf-symbol name='_ZNSt4__n113basic_istreamIwNS_11char_traitsIwEEErsERe' type='func-type' binding='weak-binding' visibility='default-visibility' is-defined='yes'/>
    <elf-symbol name='_ZNSt4__n113basic_istreamIwNS_11char_traitsIwEEErsERf' type='func-type' binding='weak-binding' visibility='default-visibility' is-defined='yes'/>
    <elf-symbol name='_ZNSt4__n113basic_istreamIwNS_11char_traitsIwEEErsERi' type='func-type' binding='weak-binding' visibility='default-visibility' is-defined='yes'/>
    <elf-symbol name='_ZNSt4__n113basic_istreamIwNS_11char_traitsIwEEErsERj' type='func-type' binding='weak-binding' visibility='default-visibility' is-defined='yes'/>
    <elf-symbol name='_ZNSt4__n113basic_istreamIwNS_11char_traitsIwEEErsERl' type='func-type' binding='weak-binding' visibility='default-visibility' is-defined='yes'/>
    <elf-symbol name='_ZNSt4__n113basic_istreamIwNS_11char_traitsIwEEErsERm' type='func-type' binding='weak-binding' visibility='default-visibility' is-defined='yes'/>
    <elf-symbol name='_ZNSt4__n113basic_istreamIwNS_11char_traitsIwEEErsERs' type='func-type' binding='weak-binding' visibility='default-visibility' is-defined='yes'/>
    <elf-symbol name='_ZNSt4__n113basic_istreamIwNS_11char_traitsIwEEErsERt' type='func-type' binding='weak-binding' visibility='default-visibility' is-defined='yes'/>
    <elf-symbol name='_ZNSt4__n113basic_istreamIwNS_11char_traitsIwEEErsERx' type='func-type' binding='weak-binding' visibility='default-visibility' is-defined='yes'/>
    <elf-symbol name='_ZNSt4__n113basic_istreamIwNS_11char_traitsIwEEErsERy' type='func-type' binding='weak-binding' visibility='default-visibility' is-defined='yes'/>
    <elf-symbol name='_ZNSt4__n113basic_ostreamIcNS_11char_traitsIcEEE3putEc' type='func-type' binding='weak-binding' visibility='default-visibility' is-defined='yes'/>
    <elf-symbol name='_ZNSt4__n113basic_ostreamIcNS_11char_traitsIcEEE4swapERS3_' type='func-type' binding='weak-binding' visibility='default-visibility' is-defined='yes'/>
    <elf-symbol name='_ZNSt4__n113basic_ostreamIcNS_11char_traitsIcEEE5flushEv' type='func-type' binding='weak-binding' visibility='default-visibility' is-defined='yes'/>
    <elf-symbol name='_ZNSt4__n113basic_ostreamIcNS_11char_traitsIcEEE5seekpENS_4fposI11__mbstate_tEE' type='func-type' binding='weak-binding' visibility='default-visibility' is-defined='yes'/>
    <elf-symbol name='_ZNSt4__n113basic_ostreamIcNS_11char_traitsIcEEE5seekpExNS_8ios_base7seekdirE' type='func-type' binding='weak-binding' visibility='default-visibility' is-defined='yes'/>
    <elf-symbol name='_ZNSt4__n113basic_ostreamIcNS_11char_traitsIcEEE5tellpEv' type='func-type' binding='weak-binding' visibility='default-visibility' is-defined='yes'/>
    <elf-symbol name='_ZNSt4__n113basic_ostreamIcNS_11char_traitsIcEEE5writeEPKci' type='func-type' binding='weak-binding' visibility='default-visibility' is-defined='yes'/>
    <elf-symbol name='_ZNSt4__n113basic_ostreamIcNS_11char_traitsIcEEE6sentryC1ERS3_' type='func-type' binding='weak-binding' visibility='default-visibility' is-defined='yes'/>
    <elf-symbol name='_ZNSt4__n113basic_ostreamIcNS_11char_traitsIcEEE6sentryC2ERS3_' type='func-type' binding='weak-binding' visibility='default-visibility' alias='_ZNSt4__n113basic_ostreamIcNS_11char_traitsIcEEE6sentryC1ERS3_' is-defined='yes'/>
    <elf-symbol name='_ZNSt4__n113basic_ostreamIcNS_11char_traitsIcEEE6sentryD1Ev' type='func-type' binding='weak-binding' visibility='default-visibility' is-defined='yes'/>
    <elf-symbol name='_ZNSt4__n113basic_ostreamIcNS_11char_traitsIcEEE6sentryD2Ev' type='func-type' binding='weak-binding' visibility='default-visibility' alias='_ZNSt4__n113basic_ostreamIcNS_11char_traitsIcEEE6sentryD1Ev' is-defined='yes'/>
    <elf-symbol name='_ZNSt4__n113basic_ostreamIcNS_11char_traitsIcEEEC1EPNS_15basic_streambufIcS2_EE' type='func-type' binding='weak-binding' visibility='default-visibility' is-defined='yes'/>
    <elf-symbol name='_ZNSt4__n113basic_ostreamIcNS_11char_traitsIcEEEC2EPNS_15basic_streambufIcS2_EE' type='func-type' binding='weak-binding' visibility='default-visibility' is-defined='yes'/>
    <elf-symbol name='_ZNSt4__n113basic_ostreamIcNS_11char_traitsIcEEED0Ev' type='func-type' binding='weak-binding' visibility='default-visibility' is-defined='yes'/>
    <elf-symbol name='_ZNSt4__n113basic_ostreamIcNS_11char_traitsIcEEED1Ev' type='func-type' binding='weak-binding' visibility='default-visibility' is-defined='yes'/>
    <elf-symbol name='_ZNSt4__n113basic_ostreamIcNS_11char_traitsIcEEED2Ev' type='func-type' binding='weak-binding' visibility='default-visibility' is-defined='yes'/>
    <elf-symbol name='_ZNSt4__n113basic_ostreamIcNS_11char_traitsIcEEElsEPFRNS_8ios_baseES5_E' type='func-type' binding='weak-binding' visibility='default-visibility' is-defined='yes'/>
    <elf-symbol name='_ZNSt4__n113basic_ostreamIcNS_11char_traitsIcEEElsEPFRNS_9basic_iosIcS2_EES6_E' type='func-type' binding='weak-binding' visibility='default-visibility' is-defined='yes'/>
    <elf-symbol name='_ZNSt4__n113basic_ostreamIcNS_11char_traitsIcEEElsEPFRS3_S4_E' type='func-type' binding='weak-binding' visibility='default-visibility' is-defined='yes'/>
    <elf-symbol name='_ZNSt4__n113basic_ostreamIcNS_11char_traitsIcEEElsEPKv' type='func-type' binding='weak-binding' visibility='default-visibility' is-defined='yes'/>
    <elf-symbol name='_ZNSt4__n113basic_ostreamIcNS_11char_traitsIcEEElsEPNS_15basic_streambufIcS2_EE' type='func-type' binding='weak-binding' visibility='default-visibility' is-defined='yes'/>
    <elf-symbol name='_ZNSt4__n113basic_ostreamIcNS_11char_traitsIcEEElsEb' type='func-type' binding='weak-binding' visibility='default-visibility' is-defined='yes'/>
    <elf-symbol name='_ZNSt4__n113basic_ostreamIcNS_11char_traitsIcEEElsEd' type='func-type' binding='weak-binding' visibility='default-visibility' is-defined='yes'/>
    <elf-symbol name='_ZNSt4__n113basic_ostreamIcNS_11char_traitsIcEEElsEe' type='func-type' binding='weak-binding' visibility='default-visibility' is-defined='yes'/>
    <elf-symbol name='_ZNSt4__n113basic_ostreamIcNS_11char_traitsIcEEElsEf' type='func-type' binding='weak-binding' visibility='default-visibility' is-defined='yes'/>
    <elf-symbol name='_ZNSt4__n113basic_ostreamIcNS_11char_traitsIcEEElsEi' type='func-type' binding='weak-binding' visibility='default-visibility' is-defined='yes'/>
    <elf-symbol name='_ZNSt4__n113basic_ostreamIcNS_11char_traitsIcEEElsEj' type='func-type' binding='weak-binding' visibility='default-visibility' is-defined='yes'/>
    <elf-symbol name='_ZNSt4__n113basic_ostreamIcNS_11char_traitsIcEEElsEl' type='func-type' binding='weak-binding' visibility='default-visibility' is-defined='yes'/>
    <elf-symbol name='_ZNSt4__n113basic_ostreamIcNS_11char_traitsIcEEElsEm' type='func-type' binding='weak-binding' visibility='default-visibility' is-defined='yes'/>
    <elf-symbol name='_ZNSt4__n113basic_ostreamIcNS_11char_traitsIcEEElsEs' type='func-type' binding='weak-binding' visibility='default-visibility' is-defined='yes'/>
    <elf-symbol name='_ZNSt4__n113basic_ostreamIcNS_11char_traitsIcEEElsEt' type='func-type' binding='weak-binding' visibility='default-visibility' is-defined='yes'/>
    <elf-symbol name='_ZNSt4__n113basic_ostreamIcNS_11char_traitsIcEEElsEx' type='func-type' binding='weak-binding' visibility='default-visibility' is-defined='yes'/>
    <elf-symbol name='_ZNSt4__n113basic_ostreamIcNS_11char_traitsIcEEElsEy' type='func-type' binding='weak-binding' visibility='default-visibility' is-defined='yes'/>
    <elf-symbol name='_ZNSt4__n113basic_ostreamIwNS_11char_traitsIwEEE3putEw' type='func-type' binding='weak-binding' visibility='default-visibility' is-defined='yes'/>
    <elf-symbol name='_ZNSt4__n113basic_ostreamIwNS_11char_traitsIwEEE4swapERS3_' type='func-type' binding='weak-binding' visibility='default-visibility' is-defined='yes'/>
    <elf-symbol name='_ZNSt4__n113basic_ostreamIwNS_11char_traitsIwEEE5flushEv' type='func-type' binding='weak-binding' visibility='default-visibility' is-defined='yes'/>
    <elf-symbol name='_ZNSt4__n113basic_ostreamIwNS_11char_traitsIwEEE5seekpENS_4fposI11__mbstate_tEE' type='func-type' binding='weak-binding' visibility='default-visibility' is-defined='yes'/>
    <elf-symbol name='_ZNSt4__n113basic_ostreamIwNS_11char_traitsIwEEE5seekpExNS_8ios_base7seekdirE' type='func-type' binding='weak-binding' visibility='default-visibility' is-defined='yes'/>
    <elf-symbol name='_ZNSt4__n113basic_ostreamIwNS_11char_traitsIwEEE5tellpEv' type='func-type' binding='weak-binding' visibility='default-visibility' is-defined='yes'/>
    <elf-symbol name='_ZNSt4__n113basic_ostreamIwNS_11char_traitsIwEEE5writeEPKwi' type='func-type' binding='weak-binding' visibility='default-visibility' is-defined='yes'/>
    <elf-symbol name='_ZNSt4__n113basic_ostreamIwNS_11char_traitsIwEEE6sentryC1ERS3_' type='func-type' binding='weak-binding' visibility='default-visibility' is-defined='yes'/>
    <elf-symbol name='_ZNSt4__n113basic_ostreamIwNS_11char_traitsIwEEE6sentryC2ERS3_' type='func-type' binding='weak-binding' visibility='default-visibility' alias='_ZNSt4__n113basic_ostreamIwNS_11char_traitsIwEEE6sentryC1ERS3_' is-defined='yes'/>
    <elf-symbol name='_ZNSt4__n113basic_ostreamIwNS_11char_traitsIwEEE6sentryD1Ev' type='func-type' binding='weak-binding' visibility='default-visibility' is-defined='yes'/>
    <elf-symbol name='_ZNSt4__n113basic_ostreamIwNS_11char_traitsIwEEE6sentryD2Ev' type='func-type' binding='weak-binding' visibility='default-visibility' alias='_ZNSt4__n113basic_ostreamIwNS_11char_traitsIwEEE6sentryD1Ev' is-defined='yes'/>
    <elf-symbol name='_ZNSt4__n113basic_ostreamIwNS_11char_traitsIwEEEC1EPNS_15basic_streambufIwS2_EE' type='func-type' binding='weak-binding' visibility='default-visibility' is-defined='yes'/>
    <elf-symbol name='_ZNSt4__n113basic_ostreamIwNS_11char_traitsIwEEEC2EPNS_15basic_streambufIwS2_EE' type='func-type' binding='weak-binding' visibility='default-visibility' is-defined='yes'/>
    <elf-symbol name='_ZNSt4__n113basic_ostreamIwNS_11char_traitsIwEEED0Ev' type='func-type' binding='weak-binding' visibility='default-visibility' is-defined='yes'/>
    <elf-symbol name='_ZNSt4__n113basic_ostreamIwNS_11char_traitsIwEEED1Ev' type='func-type' binding='weak-binding' visibility='default-visibility' is-defined='yes'/>
    <elf-symbol name='_ZNSt4__n113basic_ostreamIwNS_11char_traitsIwEEED2Ev' type='func-type' binding='weak-binding' visibility='default-visibility' is-defined='yes'/>
    <elf-symbol name='_ZNSt4__n113basic_ostreamIwNS_11char_traitsIwEEElsEPFRNS_8ios_baseES5_E' type='func-type' binding='weak-binding' visibility='default-visibility' is-defined='yes'/>
    <elf-symbol name='_ZNSt4__n113basic_ostreamIwNS_11char_traitsIwEEElsEPFRNS_9basic_iosIwS2_EES6_E' type='func-type' binding='weak-binding' visibility='default-visibility' is-defined='yes'/>
    <elf-symbol name='_ZNSt4__n113basic_ostreamIwNS_11char_traitsIwEEElsEPFRS3_S4_E' type='func-type' binding='weak-binding' visibility='default-visibility' is-defined='yes'/>
    <elf-symbol name='_ZNSt4__n113basic_ostreamIwNS_11char_traitsIwEEElsEPKv' type='func-type' binding='weak-binding' visibility='default-visibility' is-defined='yes'/>
    <elf-symbol name='_ZNSt4__n113basic_ostreamIwNS_11char_traitsIwEEElsEPNS_15basic_streambufIwS2_EE' type='func-type' binding='weak-binding' visibility='default-visibility' is-defined='yes'/>
    <elf-symbol name='_ZNSt4__n113basic_ostreamIwNS_11char_traitsIwEEElsEb' type='func-type' binding='weak-binding' visibility='default-visibility' is-defined='yes'/>
    <elf-symbol name='_ZNSt4__n113basic_ostreamIwNS_11char_traitsIwEEElsEd' type='func-type' binding='weak-binding' visibility='default-visibility' is-defined='yes'/>
    <elf-symbol name='_ZNSt4__n113basic_ostreamIwNS_11char_traitsIwEEElsEe' type='func-type' binding='weak-binding' visibility='default-visibility' is-defined='yes'/>
    <elf-symbol name='_ZNSt4__n113basic_ostreamIwNS_11char_traitsIwEEElsEf' type='func-type' binding='weak-binding' visibility='default-visibility' is-defined='yes'/>
    <elf-symbol name='_ZNSt4__n113basic_ostreamIwNS_11char_traitsIwEEElsEi' type='func-type' binding='weak-binding' visibility='default-visibility' is-defined='yes'/>
    <elf-symbol name='_ZNSt4__n113basic_ostreamIwNS_11char_traitsIwEEElsEj' type='func-type' binding='weak-binding' visibility='default-visibility' is-defined='yes'/>
    <elf-symbol name='_ZNSt4__n113basic_ostreamIwNS_11char_traitsIwEEElsEl' type='func-type' binding='weak-binding' visibility='default-visibility' is-defined='yes'/>
    <elf-symbol name='_ZNSt4__n113basic_ostreamIwNS_11char_traitsIwEEElsEm' type='func-type' binding='weak-binding' visibility='default-visibility' is-defined='yes'/>
    <elf-symbol name='_ZNSt4__n113basic_ostreamIwNS_11char_traitsIwEEElsEs' type='func-type' binding='weak-binding' visibility='default-visibility' is-defined='yes'/>
    <elf-symbol name='_ZNSt4__n113basic_ostreamIwNS_11char_traitsIwEEElsEt' type='func-type' binding='weak-binding' visibility='default-visibility' is-defined='yes'/>
    <elf-symbol name='_ZNSt4__n113basic_ostreamIwNS_11char_traitsIwEEElsEx' type='func-type' binding='weak-binding' visibility='default-visibility' is-defined='yes'/>
    <elf-symbol name='_ZNSt4__n113basic_ostreamIwNS_11char_traitsIwEEElsEy' type='func-type' binding='weak-binding' visibility='default-visibility' is-defined='yes'/>
    <elf-symbol name='_ZNSt4__n113random_deviceC1ERKNS_12basic_stringIcNS_11char_traitsIcEENS_9allocatorIcEEEE' type='func-type' binding='global-binding' visibility='default-visibility' is-defined='yes'/>
    <elf-symbol name='_ZNSt4__n113random_deviceC2ERKNS_12basic_stringIcNS_11char_traitsIcEENS_9allocatorIcEEEE' type='func-type' binding='global-binding' visibility='default-visibility' alias='_ZNSt4__n113random_deviceC1ERKNS_12basic_stringIcNS_11char_traitsIcEENS_9allocatorIcEEEE' is-defined='yes'/>
    <elf-symbol name='_ZNSt4__n113random_deviceD1Ev' type='func-type' binding='global-binding' visibility='default-visibility' is-defined='yes'/>
    <elf-symbol name='_ZNSt4__n113random_deviceD2Ev' type='func-type' binding='global-binding' visibility='default-visibility' alias='_ZNSt4__n113random_deviceD1Ev' is-defined='yes'/>
    <elf-symbol name='_ZNSt4__n113random_deviceclEv' type='func-type' binding='global-binding' visibility='default-visibility' is-defined='yes'/>
    <elf-symbol name='_ZNSt4__n113shared_futureIvED1Ev' type='func-type' binding='global-binding' visibility='default-visibility' is-defined='yes'/>
    <elf-symbol name='_ZNSt4__n113shared_futureIvED2Ev' type='func-type' binding='global-binding' visibility='default-visibility' alias='_ZNSt4__n113shared_futureIvED1Ev' is-defined='yes'/>
    <elf-symbol name='_ZNSt4__n113shared_futureIvEaSERKS1_' type='func-type' binding='global-binding' visibility='default-visibility' is-defined='yes'/>
    <elf-symbol name='_ZNSt4__n114__num_get_base10__get_baseERNS_8ios_baseE' type='func-type' binding='global-binding' visibility='default-visibility' is-defined='yes'/>
    <elf-symbol name='_ZNSt4__n114__num_put_base12__format_intEPcPKcbj' type='func-type' binding='global-binding' visibility='default-visibility' is-defined='yes'/>
    <elf-symbol name='_ZNSt4__n114__num_put_base14__format_floatEPcPKcj' type='func-type' binding='global-binding' visibility='default-visibility' is-defined='yes'/>
    <elf-symbol name='_ZNSt4__n114__num_put_base18__identify_paddingEPcS1_RKNS_8ios_baseE' type='func-type' binding='global-binding' visibility='default-visibility' is-defined='yes'/>
    <elf-symbol name='_ZNSt4__n114__shared_count12__add_sharedEv' type='func-type' binding='global-binding' visibility='default-visibility' is-defined='yes'/>
    <elf-symbol name='_ZNSt4__n114__shared_count16__release_sharedEv' type='func-type' binding='global-binding' visibility='default-visibility' is-defined='yes'/>
    <elf-symbol name='_ZNSt4__n114__shared_countD0Ev' type='func-type' binding='global-binding' visibility='default-visibility' is-defined='yes'/>
    <elf-symbol name='_ZNSt4__n114__shared_countD1Ev' type='func-type' binding='global-binding' visibility='default-visibility' is-defined='yes'/>
    <elf-symbol name='_ZNSt4__n114__shared_countD2Ev' type='func-type' binding='global-binding' visibility='default-visibility' alias='_ZNSt4__n119__shared_weak_countD2Ev,_ZNSt4__n114__shared_countD1Ev,_ZNSt4__n119__shared_weak_countD1Ev' is-defined='yes'/>
    <elf-symbol name='_ZNSt4__n114basic_ifstreamIcNS_11char_traitsIcEEE4openEPKcj' type='func-type' binding='weak-binding' visibility='default-visibility' is-defined='yes'/>
    <elf-symbol name='_ZNSt4__n114basic_ifstreamIcNS_11char_traitsIcEEE4openERKNS_12basic_stringIcS2_NS_9allocatorIcEEEEj' type='func-type' binding='weak-binding' visibility='default-visibility' is-defined='yes'/>
    <elf-symbol name='_ZNSt4__n114basic_iostreamIcNS_11char_traitsIcEEE4swapERS3_' type='func-type' binding='weak-binding' visibility='default-visibility' is-defined='yes'/>
    <elf-symbol name='_ZNSt4__n114basic_iostreamIcNS_11char_traitsIcEEEC1EPNS_15basic_streambufIcS2_EE' type='func-type' binding='weak-binding' visibility='default-visibility' is-defined='yes'/>
    <elf-symbol name='_ZNSt4__n114basic_iostreamIcNS_11char_traitsIcEEEC2EPNS_15basic_streambufIcS2_EE' type='func-type' binding='weak-binding' visibility='default-visibility' is-defined='yes'/>
    <elf-symbol name='_ZNSt4__n114basic_iostreamIcNS_11char_traitsIcEEED0Ev' type='func-type' binding='weak-binding' visibility='default-visibility' is-defined='yes'/>
    <elf-symbol name='_ZNSt4__n114basic_iostreamIcNS_11char_traitsIcEEED1Ev' type='func-type' binding='weak-binding' visibility='default-visibility' is-defined='yes'/>
    <elf-symbol name='_ZNSt4__n114basic_iostreamIcNS_11char_traitsIcEEED2Ev' type='func-type' binding='weak-binding' visibility='default-visibility' is-defined='yes'/>
    <elf-symbol name='_ZNSt4__n114basic_ofstreamIcNS_11char_traitsIcEEE4openEPKcj' type='func-type' binding='weak-binding' visibility='default-visibility' is-defined='yes'/>
    <elf-symbol name='_ZNSt4__n114basic_ofstreamIcNS_11char_traitsIcEEE4openERKNS_12basic_stringIcS2_NS_9allocatorIcEEEEj' type='func-type' binding='weak-binding' visibility='default-visibility' is-defined='yes'/>
    <elf-symbol name='_ZNSt4__n114codecvt_bynameIDiDu11__mbstate_tED0Ev' type='func-type' binding='weak-binding' visibility='default-visibility' is-defined='yes'/>
    <elf-symbol name='_ZNSt4__n114codecvt_bynameIDiDu11__mbstate_tED1Ev' type='func-type' binding='weak-binding' visibility='default-visibility' is-defined='yes'/>
    <elf-symbol name='_ZNSt4__n114codecvt_bynameIDiDu11__mbstate_tED2Ev' type='func-type' binding='weak-binding' visibility='default-visibility' alias='_ZNSt4__n114codecvt_bynameIDiDu11__mbstate_tED1Ev' is-defined='yes'/>
    <elf-symbol name='_ZNSt4__n114codecvt_bynameIDic11__mbstate_tED0Ev' type='func-type' binding='weak-binding' visibility='default-visibility' is-defined='yes'/>
    <elf-symbol name='_ZNSt4__n114codecvt_bynameIDic11__mbstate_tED1Ev' type='func-type' binding='weak-binding' visibility='default-visibility' is-defined='yes'/>
    <elf-symbol name='_ZNSt4__n114codecvt_bynameIDic11__mbstate_tED2Ev' type='func-type' binding='weak-binding' visibility='default-visibility' alias='_ZNSt4__n114codecvt_bynameIDic11__mbstate_tED1Ev' is-defined='yes'/>
    <elf-symbol name='_ZNSt4__n114codecvt_bynameIDsDu11__mbstate_tED0Ev' type='func-type' binding='weak-binding' visibility='default-visibility' is-defined='yes'/>
    <elf-symbol name='_ZNSt4__n114codecvt_bynameIDsDu11__mbstate_tED1Ev' type='func-type' binding='weak-binding' visibility='default-visibility' is-defined='yes'/>
    <elf-symbol name='_ZNSt4__n114codecvt_bynameIDsDu11__mbstate_tED2Ev' type='func-type' binding='weak-binding' visibility='default-visibility' alias='_ZNSt4__n114codecvt_bynameIDsDu11__mbstate_tED1Ev' is-defined='yes'/>
    <elf-symbol name='_ZNSt4__n114codecvt_bynameIDsc11__mbstate_tED0Ev' type='func-type' binding='weak-binding' visibility='default-visibility' is-defined='yes'/>
    <elf-symbol name='_ZNSt4__n114codecvt_bynameIDsc11__mbstate_tED1Ev' type='func-type' binding='weak-binding' visibility='default-visibility' is-defined='yes'/>
    <elf-symbol name='_ZNSt4__n114codecvt_bynameIDsc11__mbstate_tED2Ev' type='func-type' binding='weak-binding' visibility='default-visibility' alias='_ZNSt4__n114codecvt_bynameIDsc11__mbstate_tED1Ev' is-defined='yes'/>
    <elf-symbol name='_ZNSt4__n114codecvt_bynameIcc11__mbstate_tED0Ev' type='func-type' binding='weak-binding' visibility='default-visibility' is-defined='yes'/>
    <elf-symbol name='_ZNSt4__n114codecvt_bynameIcc11__mbstate_tED1Ev' type='func-type' binding='weak-binding' visibility='default-visibility' is-defined='yes'/>
    <elf-symbol name='_ZNSt4__n114codecvt_bynameIcc11__mbstate_tED2Ev' type='func-type' binding='weak-binding' visibility='default-visibility' alias='_ZNSt4__n114codecvt_bynameIcc11__mbstate_tED1Ev' is-defined='yes'/>
    <elf-symbol name='_ZNSt4__n114codecvt_bynameIwc11__mbstate_tED0Ev' type='func-type' binding='weak-binding' visibility='default-visibility' is-defined='yes'/>
    <elf-symbol name='_ZNSt4__n114codecvt_bynameIwc11__mbstate_tED1Ev' type='func-type' binding='weak-binding' visibility='default-visibility' is-defined='yes'/>
    <elf-symbol name='_ZNSt4__n114codecvt_bynameIwc11__mbstate_tED2Ev' type='func-type' binding='weak-binding' visibility='default-visibility' alias='_ZNSt4__n114codecvt_bynameIwc11__mbstate_tED1Ev' is-defined='yes'/>
    <elf-symbol name='_ZNSt4__n114collate_bynameIcEC1EPKcj' type='func-type' binding='global-binding' visibility='default-visibility' is-defined='yes'/>
    <elf-symbol name='_ZNSt4__n114collate_bynameIcEC1ERKNS_12basic_stringIcNS_11char_traitsIcEENS_9allocatorIcEEEEj' type='func-type' binding='global-binding' visibility='default-visibility' is-defined='yes'/>
    <elf-symbol name='_ZNSt4__n114collate_bynameIcEC2EPKcj' type='func-type' binding='global-binding' visibility='default-visibility' alias='_ZNSt4__n114collate_bynameIcEC1EPKcj' is-defined='yes'/>
    <elf-symbol name='_ZNSt4__n114collate_bynameIcEC2ERKNS_12basic_stringIcNS_11char_traitsIcEENS_9allocatorIcEEEEj' type='func-type' binding='global-binding' visibility='default-visibility' alias='_ZNSt4__n114collate_bynameIcEC1ERKNS_12basic_stringIcNS_11char_traitsIcEENS_9allocatorIcEEEEj' is-defined='yes'/>
    <elf-symbol name='_ZNSt4__n114collate_bynameIcED0Ev' type='func-type' binding='global-binding' visibility='default-visibility' is-defined='yes'/>
    <elf-symbol name='_ZNSt4__n114collate_bynameIcED1Ev' type='func-type' binding='global-binding' visibility='default-visibility' is-defined='yes'/>
    <elf-symbol name='_ZNSt4__n114collate_bynameIcED2Ev' type='func-type' binding='global-binding' visibility='default-visibility' alias='_ZNSt4__n114collate_bynameIcED1Ev' is-defined='yes'/>
    <elf-symbol name='_ZNSt4__n114collate_bynameIwEC1EPKcj' type='func-type' binding='global-binding' visibility='default-visibility' is-defined='yes'/>
    <elf-symbol name='_ZNSt4__n114collate_bynameIwEC1ERKNS_12basic_stringIcNS_11char_traitsIcEENS_9allocatorIcEEEEj' type='func-type' binding='global-binding' visibility='default-visibility' is-defined='yes'/>
    <elf-symbol name='_ZNSt4__n114collate_bynameIwEC2EPKcj' type='func-type' binding='global-binding' visibility='default-visibility' alias='_ZNSt4__n114collate_bynameIwEC1EPKcj' is-defined='yes'/>
    <elf-symbol name='_ZNSt4__n114collate_bynameIwEC2ERKNS_12basic_stringIcNS_11char_traitsIcEENS_9allocatorIcEEEEj' type='func-type' binding='global-binding' visibility='default-visibility' alias='_ZNSt4__n114collate_bynameIwEC1ERKNS_12basic_stringIcNS_11char_traitsIcEENS_9allocatorIcEEEEj' is-defined='yes'/>
    <elf-symbol name='_ZNSt4__n114collate_bynameIwED0Ev' type='func-type' binding='global-binding' visibility='default-visibility' is-defined='yes'/>
    <elf-symbol name='_ZNSt4__n114collate_bynameIwED1Ev' type='func-type' binding='global-binding' visibility='default-visibility' is-defined='yes'/>
    <elf-symbol name='_ZNSt4__n114collate_bynameIwED2Ev' type='func-type' binding='global-binding' visibility='default-visibility' alias='_ZNSt4__n114collate_bynameIwED1Ev' is-defined='yes'/>
    <elf-symbol name='_ZNSt4__n114error_categoryC2Ev' type='func-type' binding='global-binding' visibility='default-visibility' is-defined='yes'/>
    <elf-symbol name='_ZNSt4__n114error_categoryD0Ev' type='func-type' binding='global-binding' visibility='default-visibility' is-defined='yes'/>
    <elf-symbol name='_ZNSt4__n114error_categoryD1Ev' type='func-type' binding='global-binding' visibility='default-visibility' is-defined='yes'/>
    <elf-symbol name='_ZNSt4__n114error_categoryD2Ev' type='func-type' binding='global-binding' visibility='default-visibility' alias='_ZNSt4__n114error_categoryD1Ev' is-defined='yes'/>
    <elf-symbol name='_ZNSt4__n115__get_classnameEPKcb' type='func-type' binding='global-binding' visibility='default-visibility' is-defined='yes'/>
    <elf-symbol name='_ZNSt4__n115__thread_struct25notify_all_at_thread_exitEPNS_18condition_variableEPNS_5mutexE' type='func-type' binding='global-binding' visibility='default-visibility' is-defined='yes'/>
    <elf-symbol name='_ZNSt4__n115__thread_struct27__make_ready_at_thread_exitEPNS_17__assoc_sub_stateE' type='func-type' binding='global-binding' visibility='default-visibility' is-defined='yes'/>
    <elf-symbol name='_ZNSt4__n115__thread_structC1Ev' type='func-type' binding='global-binding' visibility='default-visibility' is-defined='yes'/>
    <elf-symbol name='_ZNSt4__n115__thread_structC2Ev' type='func-type' binding='global-binding' visibility='default-visibility' alias='_ZNSt4__n115__thread_structC1Ev' is-defined='yes'/>
    <elf-symbol name='_ZNSt4__n115__thread_structD1Ev' type='func-type' binding='global-binding' visibility='default-visibility' is-defined='yes'/>
    <elf-symbol name='_ZNSt4__n115__thread_structD2Ev' type='func-type' binding='global-binding' visibility='default-visibility' alias='_ZNSt4__n115__thread_structD1Ev' is-defined='yes'/>
    <elf-symbol name='_ZNSt4__n115basic_streambufIcNS_11char_traitsIcEEE10pubseekoffExNS_8ios_base7seekdirEj' type='func-type' binding='weak-binding' visibility='default-visibility' is-defined='yes'/>
    <elf-symbol name='_ZNSt4__n115basic_streambufIcNS_11char_traitsIcEEE10pubseekposENS_4fposI11__mbstate_tEEj' type='func-type' binding='weak-binding' visibility='default-visibility' is-defined='yes'/>
    <elf-symbol name='_ZNSt4__n115basic_streambufIcNS_11char_traitsIcEEE4setgEPcS4_S4_' type='func-type' binding='weak-binding' visibility='default-visibility' is-defined='yes'/>
    <elf-symbol name='_ZNSt4__n115basic_streambufIcNS_11char_traitsIcEEE4setpEPcS4_' type='func-type' binding='weak-binding' visibility='default-visibility' is-defined='yes'/>
    <elf-symbol name='_ZNSt4__n115basic_streambufIcNS_11char_traitsIcEEE4swapERS3_' type='func-type' binding='weak-binding' visibility='default-visibility' is-defined='yes'/>
    <elf-symbol name='_ZNSt4__n115basic_streambufIcNS_11char_traitsIcEEE4syncEv' type='func-type' binding='weak-binding' visibility='default-visibility' is-defined='yes'/>
    <elf-symbol name='_ZNSt4__n115basic_streambufIcNS_11char_traitsIcEEE5gbumpEi' type='func-type' binding='weak-binding' visibility='default-visibility' is-defined='yes'/>
    <elf-symbol name='_ZNSt4__n115basic_streambufIcNS_11char_traitsIcEEE5imbueERKNS_6localeE' type='func-type' binding='weak-binding' visibility='default-visibility' is-defined='yes'/>
    <elf-symbol name='_ZNSt4__n115basic_streambufIcNS_11char_traitsIcEEE5pbumpEi' type='func-type' binding='weak-binding' visibility='default-visibility' is-defined='yes'/>
    <elf-symbol name='_ZNSt4__n115basic_streambufIcNS_11char_traitsIcEEE5sgetcEv' type='func-type' binding='weak-binding' visibility='default-visibility' is-defined='yes'/>
    <elf-symbol name='_ZNSt4__n115basic_streambufIcNS_11char_traitsIcEEE5sgetnEPci' type='func-type' binding='weak-binding' visibility='default-visibility' is-defined='yes'/>
    <elf-symbol name='_ZNSt4__n115basic_streambufIcNS_11char_traitsIcEEE5sputcEc' type='func-type' binding='weak-binding' visibility='default-visibility' is-defined='yes'/>
    <elf-symbol name='_ZNSt4__n115basic_streambufIcNS_11char_traitsIcEEE5sputnEPKci' type='func-type' binding='weak-binding' visibility='default-visibility' is-defined='yes'/>
    <elf-symbol name='_ZNSt4__n115basic_streambufIcNS_11char_traitsIcEEE5uflowEv' type='func-type' binding='weak-binding' visibility='default-visibility' is-defined='yes'/>
    <elf-symbol name='_ZNSt4__n115basic_streambufIcNS_11char_traitsIcEEE6sbumpcEv' type='func-type' binding='weak-binding' visibility='default-visibility' is-defined='yes'/>
    <elf-symbol name='_ZNSt4__n115basic_streambufIcNS_11char_traitsIcEEE6setbufEPci' type='func-type' binding='weak-binding' visibility='default-visibility' is-defined='yes'/>
    <elf-symbol name='_ZNSt4__n115basic_streambufIcNS_11char_traitsIcEEE6snextcEv' type='func-type' binding='weak-binding' visibility='default-visibility' is-defined='yes'/>
    <elf-symbol name='_ZNSt4__n115basic_streambufIcNS_11char_traitsIcEEE6xsgetnEPci' type='func-type' binding='weak-binding' visibility='default-visibility' is-defined='yes'/>
    <elf-symbol name='_ZNSt4__n115basic_streambufIcNS_11char_traitsIcEEE6xsputnEPKci' type='func-type' binding='weak-binding' visibility='default-visibility' is-defined='yes'/>
    <elf-symbol name='_ZNSt4__n115basic_streambufIcNS_11char_traitsIcEEE7pubsyncEv' type='func-type' binding='weak-binding' visibility='default-visibility' is-defined='yes'/>
    <elf-symbol name='_ZNSt4__n115basic_streambufIcNS_11char_traitsIcEEE7seekoffExNS_8ios_base7seekdirEj' type='func-type' binding='weak-binding' visibility='default-visibility' is-defined='yes'/>
    <elf-symbol name='_ZNSt4__n115basic_streambufIcNS_11char_traitsIcEEE7seekposENS_4fposI11__mbstate_tEEj' type='func-type' binding='weak-binding' visibility='default-visibility' is-defined='yes'/>
    <elf-symbol name='_ZNSt4__n115basic_streambufIcNS_11char_traitsIcEEE7sungetcEv' type='func-type' binding='weak-binding' visibility='default-visibility' is-defined='yes'/>
    <elf-symbol name='_ZNSt4__n115basic_streambufIcNS_11char_traitsIcEEE8in_availEv' type='func-type' binding='weak-binding' visibility='default-visibility' is-defined='yes'/>
    <elf-symbol name='_ZNSt4__n115basic_streambufIcNS_11char_traitsIcEEE8overflowEi' type='func-type' binding='weak-binding' visibility='default-visibility' is-defined='yes'/>
    <elf-symbol name='_ZNSt4__n115basic_streambufIcNS_11char_traitsIcEEE8pubimbueERKNS_6localeE' type='func-type' binding='weak-binding' visibility='default-visibility' is-defined='yes'/>
    <elf-symbol name='_ZNSt4__n115basic_streambufIcNS_11char_traitsIcEEE9pbackfailEi' type='func-type' binding='weak-binding' visibility='default-visibility' is-defined='yes'/>
    <elf-symbol name='_ZNSt4__n115basic_streambufIcNS_11char_traitsIcEEE9pubsetbufEPci' type='func-type' binding='weak-binding' visibility='default-visibility' is-defined='yes'/>
    <elf-symbol name='_ZNSt4__n115basic_streambufIcNS_11char_traitsIcEEE9showmanycEv' type='func-type' binding='weak-binding' visibility='default-visibility' is-defined='yes'/>
    <elf-symbol name='_ZNSt4__n115basic_streambufIcNS_11char_traitsIcEEE9sputbackcEc' type='func-type' binding='weak-binding' visibility='default-visibility' is-defined='yes'/>
    <elf-symbol name='_ZNSt4__n115basic_streambufIcNS_11char_traitsIcEEE9underflowEv' type='func-type' binding='weak-binding' visibility='default-visibility' is-defined='yes'/>
    <elf-symbol name='_ZNSt4__n115basic_streambufIcNS_11char_traitsIcEEEC1ERKS3_' type='func-type' binding='weak-binding' visibility='default-visibility' is-defined='yes'/>
    <elf-symbol name='_ZNSt4__n115basic_streambufIcNS_11char_traitsIcEEEC1Ev' type='func-type' binding='weak-binding' visibility='default-visibility' alias='_ZNSt4__n115basic_streambufIcNS_11char_traitsIcEEEC2Ev' is-defined='yes'/>
    <elf-symbol name='_ZNSt4__n115basic_streambufIcNS_11char_traitsIcEEEC2ERKS3_' type='func-type' binding='weak-binding' visibility='default-visibility' alias='_ZNSt4__n115basic_streambufIcNS_11char_traitsIcEEEC1ERKS3_' is-defined='yes'/>
    <elf-symbol name='_ZNSt4__n115basic_streambufIcNS_11char_traitsIcEEEC2Ev' type='func-type' binding='weak-binding' visibility='default-visibility' is-defined='yes'/>
    <elf-symbol name='_ZNSt4__n115basic_streambufIcNS_11char_traitsIcEEED0Ev' type='func-type' binding='weak-binding' visibility='default-visibility' is-defined='yes'/>
    <elf-symbol name='_ZNSt4__n115basic_streambufIcNS_11char_traitsIcEEED1Ev' type='func-type' binding='weak-binding' visibility='default-visibility' alias='_ZNSt4__n115basic_streambufIcNS_11char_traitsIcEEED2Ev' is-defined='yes'/>
    <elf-symbol name='_ZNSt4__n115basic_streambufIcNS_11char_traitsIcEEED2Ev' type='func-type' binding='weak-binding' visibility='default-visibility' is-defined='yes'/>
    <elf-symbol name='_ZNSt4__n115basic_streambufIcNS_11char_traitsIcEEEaSERKS3_' type='func-type' binding='weak-binding' visibility='default-visibility' is-defined='yes'/>
    <elf-symbol name='_ZNSt4__n115basic_streambufIwNS_11char_traitsIwEEE10pubseekoffExNS_8ios_base7seekdirEj' type='func-type' binding='weak-binding' visibility='default-visibility' is-defined='yes'/>
    <elf-symbol name='_ZNSt4__n115basic_streambufIwNS_11char_traitsIwEEE10pubseekposENS_4fposI11__mbstate_tEEj' type='func-type' binding='weak-binding' visibility='default-visibility' is-defined='yes'/>
    <elf-symbol name='_ZNSt4__n115basic_streambufIwNS_11char_traitsIwEEE4setgEPwS4_S4_' type='func-type' binding='weak-binding' visibility='default-visibility' is-defined='yes'/>
    <elf-symbol name='_ZNSt4__n115basic_streambufIwNS_11char_traitsIwEEE4setpEPwS4_' type='func-type' binding='weak-binding' visibility='default-visibility' is-defined='yes'/>
    <elf-symbol name='_ZNSt4__n115basic_streambufIwNS_11char_traitsIwEEE4swapERS3_' type='func-type' binding='weak-binding' visibility='default-visibility' is-defined='yes'/>
    <elf-symbol name='_ZNSt4__n115basic_streambufIwNS_11char_traitsIwEEE4syncEv' type='func-type' binding='weak-binding' visibility='default-visibility' is-defined='yes'/>
    <elf-symbol name='_ZNSt4__n115basic_streambufIwNS_11char_traitsIwEEE5gbumpEi' type='func-type' binding='weak-binding' visibility='default-visibility' is-defined='yes'/>
    <elf-symbol name='_ZNSt4__n115basic_streambufIwNS_11char_traitsIwEEE5imbueERKNS_6localeE' type='func-type' binding='weak-binding' visibility='default-visibility' is-defined='yes'/>
    <elf-symbol name='_ZNSt4__n115basic_streambufIwNS_11char_traitsIwEEE5pbumpEi' type='func-type' binding='weak-binding' visibility='default-visibility' is-defined='yes'/>
    <elf-symbol name='_ZNSt4__n115basic_streambufIwNS_11char_traitsIwEEE5sgetcEv' type='func-type' binding='weak-binding' visibility='default-visibility' is-defined='yes'/>
    <elf-symbol name='_ZNSt4__n115basic_streambufIwNS_11char_traitsIwEEE5sgetnEPwi' type='func-type' binding='weak-binding' visibility='default-visibility' is-defined='yes'/>
    <elf-symbol name='_ZNSt4__n115basic_streambufIwNS_11char_traitsIwEEE5sputcEw' type='func-type' binding='weak-binding' visibility='default-visibility' is-defined='yes'/>
    <elf-symbol name='_ZNSt4__n115basic_streambufIwNS_11char_traitsIwEEE5sputnEPKwi' type='func-type' binding='weak-binding' visibility='default-visibility' is-defined='yes'/>
    <elf-symbol name='_ZNSt4__n115basic_streambufIwNS_11char_traitsIwEEE5uflowEv' type='func-type' binding='weak-binding' visibility='default-visibility' is-defined='yes'/>
    <elf-symbol name='_ZNSt4__n115basic_streambufIwNS_11char_traitsIwEEE6sbumpcEv' type='func-type' binding='weak-binding' visibility='default-visibility' is-defined='yes'/>
    <elf-symbol name='_ZNSt4__n115basic_streambufIwNS_11char_traitsIwEEE6setbufEPwi' type='func-type' binding='weak-binding' visibility='default-visibility' is-defined='yes'/>
    <elf-symbol name='_ZNSt4__n115basic_streambufIwNS_11char_traitsIwEEE6snextcEv' type='func-type' binding='weak-binding' visibility='default-visibility' is-defined='yes'/>
    <elf-symbol name='_ZNSt4__n115basic_streambufIwNS_11char_traitsIwEEE6xsgetnEPwi' type='func-type' binding='weak-binding' visibility='default-visibility' is-defined='yes'/>
    <elf-symbol name='_ZNSt4__n115basic_streambufIwNS_11char_traitsIwEEE6xsputnEPKwi' type='func-type' binding='weak-binding' visibility='default-visibility' is-defined='yes'/>
    <elf-symbol name='_ZNSt4__n115basic_streambufIwNS_11char_traitsIwEEE7pubsyncEv' type='func-type' binding='weak-binding' visibility='default-visibility' is-defined='yes'/>
    <elf-symbol name='_ZNSt4__n115basic_streambufIwNS_11char_traitsIwEEE7seekoffExNS_8ios_base7seekdirEj' type='func-type' binding='weak-binding' visibility='default-visibility' is-defined='yes'/>
    <elf-symbol name='_ZNSt4__n115basic_streambufIwNS_11char_traitsIwEEE7seekposENS_4fposI11__mbstate_tEEj' type='func-type' binding='weak-binding' visibility='default-visibility' is-defined='yes'/>
    <elf-symbol name='_ZNSt4__n115basic_streambufIwNS_11char_traitsIwEEE7sungetcEv' type='func-type' binding='weak-binding' visibility='default-visibility' is-defined='yes'/>
    <elf-symbol name='_ZNSt4__n115basic_streambufIwNS_11char_traitsIwEEE8in_availEv' type='func-type' binding='weak-binding' visibility='default-visibility' is-defined='yes'/>
    <elf-symbol name='_ZNSt4__n115basic_streambufIwNS_11char_traitsIwEEE8overflowEj' type='func-type' binding='weak-binding' visibility='default-visibility' is-defined='yes'/>
    <elf-symbol name='_ZNSt4__n115basic_streambufIwNS_11char_traitsIwEEE8pubimbueERKNS_6localeE' type='func-type' binding='weak-binding' visibility='default-visibility' is-defined='yes'/>
    <elf-symbol name='_ZNSt4__n115basic_streambufIwNS_11char_traitsIwEEE9pbackfailEj' type='func-type' binding='weak-binding' visibility='default-visibility' is-defined='yes'/>
    <elf-symbol name='_ZNSt4__n115basic_streambufIwNS_11char_traitsIwEEE9pubsetbufEPwi' type='func-type' binding='weak-binding' visibility='default-visibility' is-defined='yes'/>
    <elf-symbol name='_ZNSt4__n115basic_streambufIwNS_11char_traitsIwEEE9showmanycEv' type='func-type' binding='weak-binding' visibility='default-visibility' is-defined='yes'/>
    <elf-symbol name='_ZNSt4__n115basic_streambufIwNS_11char_traitsIwEEE9sputbackcEw' type='func-type' binding='weak-binding' visibility='default-visibility' is-defined='yes'/>
    <elf-symbol name='_ZNSt4__n115basic_streambufIwNS_11char_traitsIwEEE9underflowEv' type='func-type' binding='weak-binding' visibility='default-visibility' is-defined='yes'/>
    <elf-symbol name='_ZNSt4__n115basic_streambufIwNS_11char_traitsIwEEEC1ERKS3_' type='func-type' binding='weak-binding' visibility='default-visibility' is-defined='yes'/>
    <elf-symbol name='_ZNSt4__n115basic_streambufIwNS_11char_traitsIwEEEC1Ev' type='func-type' binding='weak-binding' visibility='default-visibility' alias='_ZNSt4__n115basic_streambufIwNS_11char_traitsIwEEEC2Ev' is-defined='yes'/>
    <elf-symbol name='_ZNSt4__n115basic_streambufIwNS_11char_traitsIwEEEC2ERKS3_' type='func-type' binding='weak-binding' visibility='default-visibility' alias='_ZNSt4__n115basic_streambufIwNS_11char_traitsIwEEEC1ERKS3_' is-defined='yes'/>
    <elf-symbol name='_ZNSt4__n115basic_streambufIwNS_11char_traitsIwEEEC2Ev' type='func-type' binding='weak-binding' visibility='default-visibility' is-defined='yes'/>
    <elf-symbol name='_ZNSt4__n115basic_streambufIwNS_11char_traitsIwEEED0Ev' type='func-type' binding='weak-binding' visibility='default-visibility' is-defined='yes'/>
    <elf-symbol name='_ZNSt4__n115basic_streambufIwNS_11char_traitsIwEEED1Ev' type='func-type' binding='weak-binding' visibility='default-visibility' alias='_ZNSt4__n115basic_streambufIwNS_11char_traitsIwEEED2Ev' is-defined='yes'/>
    <elf-symbol name='_ZNSt4__n115basic_streambufIwNS_11char_traitsIwEEED2Ev' type='func-type' binding='weak-binding' visibility='default-visibility' is-defined='yes'/>
    <elf-symbol name='_ZNSt4__n115basic_streambufIwNS_11char_traitsIwEEEaSERKS3_' type='func-type' binding='weak-binding' visibility='default-visibility' is-defined='yes'/>
    <elf-symbol name='_ZNSt4__n115basic_stringbufIcNS_11char_traitsIcEENS_9allocatorIcEEE3strERKNS_12basic_stringIcS2_S4_EE' type='func-type' binding='weak-binding' visibility='default-visibility' is-defined='yes'/>
    <elf-symbol name='_ZNSt4__n115basic_stringbufIcNS_11char_traitsIcEENS_9allocatorIcEEE4swapERS5_' type='func-type' binding='weak-binding' visibility='default-visibility' is-defined='yes'/>
    <elf-symbol name='_ZNSt4__n115basic_stringbufIcNS_11char_traitsIcEENS_9allocatorIcEEE7seekoffExNS_8ios_base7seekdirEj' type='func-type' binding='weak-binding' visibility='default-visibility' is-defined='yes'/>
    <elf-symbol name='_ZNSt4__n115basic_stringbufIcNS_11char_traitsIcEENS_9allocatorIcEEE8overflowEi' type='func-type' binding='weak-binding' visibility='default-visibility' is-defined='yes'/>
    <elf-symbol name='_ZNSt4__n115basic_stringbufIcNS_11char_traitsIcEENS_9allocatorIcEEE9pbackfailEi' type='func-type' binding='weak-binding' visibility='default-visibility' is-defined='yes'/>
    <elf-symbol name='_ZNSt4__n115basic_stringbufIcNS_11char_traitsIcEENS_9allocatorIcEEE9underflowEv' type='func-type' binding='weak-binding' visibility='default-visibility' is-defined='yes'/>
    <elf-symbol name='_ZNSt4__n115basic_stringbufIcNS_11char_traitsIcEENS_9allocatorIcEEEC1EOS5_' type='func-type' binding='weak-binding' visibility='default-visibility' is-defined='yes'/>
    <elf-symbol name='_ZNSt4__n115basic_stringbufIcNS_11char_traitsIcEENS_9allocatorIcEEEC2EOS5_' type='func-type' binding='weak-binding' visibility='default-visibility' alias='_ZNSt4__n115basic_stringbufIcNS_11char_traitsIcEENS_9allocatorIcEEEC1EOS5_' is-defined='yes'/>
    <elf-symbol name='_ZNSt4__n115basic_stringbufIcNS_11char_traitsIcEENS_9allocatorIcEEEaSEOS5_' type='func-type' binding='weak-binding' visibility='default-visibility' is-defined='yes'/>
    <elf-symbol name='_ZNSt4__n115future_categoryEv' type='func-type' binding='global-binding' visibility='default-visibility' is-defined='yes'/>
    <elf-symbol name='_ZNSt4__n115numpunct_bynameIcE6__initEPKc' type='func-type' binding='global-binding' visibility='default-visibility' is-defined='yes'/>
    <elf-symbol name='_ZNSt4__n115numpunct_bynameIcEC1EPKcj' type='func-type' binding='global-binding' visibility='default-visibility' is-defined='yes'/>
    <elf-symbol name='_ZNSt4__n115numpunct_bynameIcEC1ERKNS_12basic_stringIcNS_11char_traitsIcEENS_9allocatorIcEEEEj' type='func-type' binding='global-binding' visibility='default-visibility' is-defined='yes'/>
    <elf-symbol name='_ZNSt4__n115numpunct_bynameIcEC2EPKcj' type='func-type' binding='global-binding' visibility='default-visibility' alias='_ZNSt4__n115numpunct_bynameIcEC1EPKcj' is-defined='yes'/>
    <elf-symbol name='_ZNSt4__n115numpunct_bynameIcEC2ERKNS_12basic_stringIcNS_11char_traitsIcEENS_9allocatorIcEEEEj' type='func-type' binding='global-binding' visibility='default-visibility' alias='_ZNSt4__n115numpunct_bynameIcEC1ERKNS_12basic_stringIcNS_11char_traitsIcEENS_9allocatorIcEEEEj' is-defined='yes'/>
    <elf-symbol name='_ZNSt4__n115numpunct_bynameIcED0Ev' type='func-type' binding='global-binding' visibility='default-visibility' is-defined='yes'/>
    <elf-symbol name='_ZNSt4__n115numpunct_bynameIcED1Ev' type='func-type' binding='global-binding' visibility='default-visibility' is-defined='yes'/>
    <elf-symbol name='_ZNSt4__n115numpunct_bynameIcED2Ev' type='func-type' binding='global-binding' visibility='default-visibility' alias='_ZNSt4__n18numpunctIcED1Ev,_ZNSt4__n18numpunctIcED2Ev,_ZNSt4__n115numpunct_bynameIcED1Ev' is-defined='yes'/>
    <elf-symbol name='_ZNSt4__n115numpunct_bynameIwE6__initEPKc' type='func-type' binding='global-binding' visibility='default-visibility' is-defined='yes'/>
    <elf-symbol name='_ZNSt4__n115numpunct_bynameIwEC1EPKcj' type='func-type' binding='global-binding' visibility='default-visibility' is-defined='yes'/>
    <elf-symbol name='_ZNSt4__n115numpunct_bynameIwEC1ERKNS_12basic_stringIcNS_11char_traitsIcEENS_9allocatorIcEEEEj' type='func-type' binding='global-binding' visibility='default-visibility' is-defined='yes'/>
    <elf-symbol name='_ZNSt4__n115numpunct_bynameIwEC2EPKcj' type='func-type' binding='global-binding' visibility='default-visibility' alias='_ZNSt4__n115numpunct_bynameIwEC1EPKcj' is-defined='yes'/>
    <elf-symbol name='_ZNSt4__n115numpunct_bynameIwEC2ERKNS_12basic_stringIcNS_11char_traitsIcEENS_9allocatorIcEEEEj' type='func-type' binding='global-binding' visibility='default-visibility' alias='_ZNSt4__n115numpunct_bynameIwEC1ERKNS_12basic_stringIcNS_11char_traitsIcEENS_9allocatorIcEEEEj' is-defined='yes'/>
    <elf-symbol name='_ZNSt4__n115numpunct_bynameIwED0Ev' type='func-type' binding='global-binding' visibility='default-visibility' is-defined='yes'/>
    <elf-symbol name='_ZNSt4__n115numpunct_bynameIwED1Ev' type='func-type' binding='global-binding' visibility='default-visibility' is-defined='yes'/>
    <elf-symbol name='_ZNSt4__n115numpunct_bynameIwED2Ev' type='func-type' binding='global-binding' visibility='default-visibility' alias='_ZNSt4__n18numpunctIwED1Ev,_ZNSt4__n18numpunctIwED2Ev,_ZNSt4__n115numpunct_bynameIwED1Ev' is-defined='yes'/>
    <elf-symbol name='_ZNSt4__n115recursive_mutex4lockEv' type='func-type' binding='global-binding' visibility='default-visibility' is-defined='yes'/>
    <elf-symbol name='_ZNSt4__n115recursive_mutex6unlockEv' type='func-type' binding='global-binding' visibility='default-visibility' is-defined='yes'/>
    <elf-symbol name='_ZNSt4__n115recursive_mutex8try_lockEv' type='func-type' binding='global-binding' visibility='default-visibility' is-defined='yes'/>
    <elf-symbol name='_ZNSt4__n115recursive_mutexC1Ev' type='func-type' binding='global-binding' visibility='default-visibility' is-defined='yes'/>
    <elf-symbol name='_ZNSt4__n115recursive_mutexC2Ev' type='func-type' binding='global-binding' visibility='default-visibility' alias='_ZNSt4__n115recursive_mutexC1Ev' is-defined='yes'/>
    <elf-symbol name='_ZNSt4__n115recursive_mutexD1Ev' type='func-type' binding='global-binding' visibility='default-visibility' is-defined='yes'/>
    <elf-symbol name='_ZNSt4__n115recursive_mutexD2Ev' type='func-type' binding='global-binding' visibility='default-visibility' alias='_ZNSt4__n115recursive_mutexD1Ev' is-defined='yes'/>
    <elf-symbol name='_ZNSt4__n115system_categoryEv' type='func-type' binding='global-binding' visibility='default-visibility' is-defined='yes'/>
    <elf-symbol name='_ZNSt4__n116__check_groupingERKNS_12basic_stringIcNS_11char_traitsIcEENS_9allocatorIcEEEEPjS8_Rj' type='func-type' binding='global-binding' visibility='default-visibility' is-defined='yes'/>
    <elf-symbol name='_ZNSt4__n116__narrow_to_utf8ILj16EED0Ev' type='func-type' binding='global-binding' visibility='default-visibility' is-defined='yes'/>
    <elf-symbol name='_ZNSt4__n116__narrow_to_utf8ILj16EED1Ev' type='func-type' binding='global-binding' visibility='default-visibility' is-defined='yes'/>
    <elf-symbol name='_ZNSt4__n116__narrow_to_utf8ILj16EED2Ev' type='func-type' binding='global-binding' visibility='default-visibility' alias='_ZNSt4__n116__narrow_to_utf8ILj32EED2Ev,_ZNSt4__n117__widen_from_utf8ILj16EED2Ev,_ZNSt4__n117__widen_from_utf8ILj32EED2Ev,_ZNSt4__n116__narrow_to_utf8ILj32EED1Ev,_ZNSt4__n117__widen_from_utf8ILj32EED1Ev,_ZNSt4__n17codecvtIcc11__mbstate_tED2Ev,_ZNSt4__n17codecvtIDsc11__mbstate_tED2Ev,_ZNSt4__n17codecvtIDic11__mbstate_tED2Ev,_ZNSt4__n17codecvtIDsDu11__mbstate_tED2Ev,_ZNSt4__n17codecvtIDiDu11__mbstate_tED2Ev,_ZNSt4__n16locale5facetD1Ev,_ZNSt4__n15ctypeIwED1Ev,_ZNSt4__n15ctypeIwED2Ev,_ZNSt4__n17codecvtIcc11__mbstate_tED1Ev,_ZNSt4__n17codecvtIDsc11__mbstate_tED1Ev,_ZNSt4__n17codecvtIDsDu11__mbstate_tED1Ev,_ZNSt4__n17codecvtIDic11__mbstate_tED1Ev,_ZNSt4__n17codecvtIDiDu11__mbstate_tED1Ev,_ZNSt4__n116__narrow_to_utf8ILj16EED1Ev,_ZNSt4__n117__widen_from_utf8ILj16EED1Ev,_ZNSt4__n16locale5facetD2Ev' is-defined='yes'/>
    <elf-symbol name='_ZNSt4__n116__narrow_to_utf8ILj32EED0Ev' type='func-type' binding='global-binding' visibility='default-visibility' is-defined='yes'/>
    <elf-symbol name='_ZNSt4__n116__narrow_to_utf8ILj32EED1Ev' type='func-type' binding='global-binding' visibility='default-visibility' is-defined='yes'/>
    <elf-symbol name='_ZNSt4__n116__narrow_to_utf8ILj32EED2Ev' type='func-type' binding='global-binding' visibility='default-visibility' is-defined='yes'/>
    <elf-symbol name='_ZNSt4__n116generic_categoryEv' type='func-type' binding='global-binding' visibility='default-visibility' is-defined='yes'/>
    <elf-symbol name='_ZNSt4__n117__assoc_sub_state10__sub_waitERNS_11unique_lockINS_5mutexEEE' type='func-type' binding='global-binding' visibility='default-visibility' is-defined='yes'/>
    <elf-symbol name='_ZNSt4__n117__assoc_sub_state12__make_readyEv' type='func-type' binding='global-binding' visibility='default-visibility' is-defined='yes'/>
    <elf-symbol name='_ZNSt4__n117__assoc_sub_state13set_exceptionESt13exception_ptr' type='func-type' binding='global-binding' visibility='default-visibility' is-defined='yes'/>
    <elf-symbol name='_ZNSt4__n117__assoc_sub_state16__on_zero_sharedEv' type='func-type' binding='global-binding' visibility='default-visibility' is-defined='yes'/>
    <elf-symbol name='_ZNSt4__n117__assoc_sub_state24set_value_at_thread_exitEv' type='func-type' binding='global-binding' visibility='default-visibility' is-defined='yes'/>
    <elf-symbol name='_ZNSt4__n117__assoc_sub_state28set_exception_at_thread_exitESt13exception_ptr' type='func-type' binding='global-binding' visibility='default-visibility' is-defined='yes'/>
    <elf-symbol name='_ZNSt4__n117__assoc_sub_state4copyEv' type='func-type' binding='global-binding' visibility='default-visibility' is-defined='yes'/>
    <elf-symbol name='_ZNSt4__n117__assoc_sub_state4waitEv' type='func-type' binding='global-binding' visibility='default-visibility' is-defined='yes'/>
    <elf-symbol name='_ZNSt4__n117__assoc_sub_state9__executeEv' type='func-type' binding='global-binding' visibility='default-visibility' is-defined='yes'/>
    <elf-symbol name='_ZNSt4__n117__assoc_sub_state9set_valueEv' type='func-type' binding='global-binding' visibility='default-visibility' is-defined='yes'/>
    <elf-symbol name='_ZNSt4__n117__widen_from_utf8ILj16EED0Ev' type='func-type' binding='global-binding' visibility='default-visibility' is-defined='yes'/>
    <elf-symbol name='_ZNSt4__n117__widen_from_utf8ILj16EED1Ev' type='func-type' binding='global-binding' visibility='default-visibility' is-defined='yes'/>
    <elf-symbol name='_ZNSt4__n117__widen_from_utf8ILj16EED2Ev' type='func-type' binding='global-binding' visibility='default-visibility' is-defined='yes'/>
    <elf-symbol name='_ZNSt4__n117__widen_from_utf8ILj32EED0Ev' type='func-type' binding='global-binding' visibility='default-visibility' is-defined='yes'/>
    <elf-symbol name='_ZNSt4__n117__widen_from_utf8ILj32EED1Ev' type='func-type' binding='global-binding' visibility='default-visibility' is-defined='yes'/>
    <elf-symbol name='_ZNSt4__n117__widen_from_utf8ILj32EED2Ev' type='func-type' binding='global-binding' visibility='default-visibility' is-defined='yes'/>
    <elf-symbol name='_ZNSt4__n117bad_function_callD0Ev' type='func-type' binding='global-binding' visibility='default-visibility' is-defined='yes'/>
    <elf-symbol name='_ZNSt4__n117bad_function_callD1Ev' type='func-type' binding='global-binding' visibility='default-visibility' is-defined='yes'/>
    <elf-symbol name='_ZNSt4__n117bad_function_callD2Ev' type='func-type' binding='global-binding' visibility='default-visibility' alias='_ZNSt4__n117bad_function_callD1Ev' is-defined='yes'/>
    <elf-symbol name='_ZNSt4__n117declare_reachableEPv' type='func-type' binding='global-binding' visibility='default-visibility' is-defined='yes'/>
    <elf-symbol name='_ZNSt4__n117iostream_categoryEv' type='func-type' binding='global-binding' visibility='default-visibility' is-defined='yes'/>
    <elf-symbol name='_ZNSt4__n117moneypunct_bynameIcLb0EE4initEPKc' type='func-type' binding='global-binding' visibility='default-visibility' is-defined='yes'/>
    <elf-symbol name='_ZNSt4__n117moneypunct_bynameIcLb1EE4initEPKc' type='func-type' binding='global-binding' visibility='default-visibility' is-defined='yes'/>
    <elf-symbol name='_ZNSt4__n117moneypunct_bynameIwLb0EE4initEPKc' type='func-type' binding='global-binding' visibility='default-visibility' is-defined='yes'/>
    <elf-symbol name='_ZNSt4__n117moneypunct_bynameIwLb1EE4initEPKc' type='func-type' binding='global-binding' visibility='default-visibility' is-defined='yes'/>
    <elf-symbol name='_ZNSt4__n118__time_get_storageIcE4initERKNS_5ctypeIcEE' type='func-type' binding='global-binding' visibility='default-visibility' is-defined='yes'/>
    <elf-symbol name='_ZNSt4__n118__time_get_storageIcE9__analyzeEcRKNS_5ctypeIcEE' type='func-type' binding='global-binding' visibility='default-visibility' is-defined='yes'/>
    <elf-symbol name='_ZNSt4__n118__time_get_storageIcEC1EPKc' type='func-type' binding='global-binding' visibility='default-visibility' is-defined='yes'/>
    <elf-symbol name='_ZNSt4__n118__time_get_storageIcEC1ERKNS_12basic_stringIcNS_11char_traitsIcEENS_9allocatorIcEEEE' type='func-type' binding='global-binding' visibility='default-visibility' alias='_ZNSt4__n118__time_get_storageIcEC2ERKNS_12basic_stringIcNS_11char_traitsIcEENS_9allocatorIcEEEE' is-defined='yes'/>
    <elf-symbol name='_ZNSt4__n118__time_get_storageIcEC2EPKc' type='func-type' binding='global-binding' visibility='default-visibility' alias='_ZNSt4__n118__time_get_storageIcEC1EPKc' is-defined='yes'/>
    <elf-symbol name='_ZNSt4__n118__time_get_storageIcEC2ERKNS_12basic_stringIcNS_11char_traitsIcEENS_9allocatorIcEEEE' type='func-type' binding='global-binding' visibility='default-visibility' is-defined='yes'/>
    <elf-symbol name='_ZNSt4__n118__time_get_storageIwE4initERKNS_5ctypeIwEE' type='func-type' binding='global-binding' visibility='default-visibility' is-defined='yes'/>
    <elf-symbol name='_ZNSt4__n118__time_get_storageIwE9__analyzeEcRKNS_5ctypeIwEE' type='func-type' binding='global-binding' visibility='default-visibility' is-defined='yes'/>
    <elf-symbol name='_ZNSt4__n118__time_get_storageIwEC1EPKc' type='func-type' binding='global-binding' visibility='default-visibility' is-defined='yes'/>
    <elf-symbol name='_ZNSt4__n118__time_get_storageIwEC1ERKNS_12basic_stringIcNS_11char_traitsIcEENS_9allocatorIcEEEE' type='func-type' binding='global-binding' visibility='default-visibility' alias='_ZNSt4__n118__time_get_storageIwEC2ERKNS_12basic_stringIcNS_11char_traitsIcEENS_9allocatorIcEEEE' is-defined='yes'/>
    <elf-symbol name='_ZNSt4__n118__time_get_storageIwEC2EPKc' type='func-type' binding='global-binding' visibility='default-visibility' alias='_ZNSt4__n118__time_get_storageIwEC1EPKc' is-defined='yes'/>
    <elf-symbol name='_ZNSt4__n118__time_get_storageIwEC2ERKNS_12basic_stringIcNS_11char_traitsIcEENS_9allocatorIcEEEE' type='func-type' binding='global-binding' visibility='default-visibility' is-defined='yes'/>
    <elf-symbol name='_ZNSt4__n118basic_stringstreamIcNS_11char_traitsIcEENS_9allocatorIcEEEaSEOS5_' type='func-type' binding='weak-binding' visibility='default-visibility' is-defined='yes'/>
    <elf-symbol name='_ZNSt4__n118condition_variable10notify_allEv' type='func-type' binding='global-binding' visibility='default-visibility' is-defined='yes'/>
    <elf-symbol name='_ZNSt4__n118condition_variable10notify_oneEv' type='func-type' binding='global-binding' visibility='default-visibility' is-defined='yes'/>
    <elf-symbol name='_ZNSt4__n118condition_variable15__do_timed_waitERNS_11unique_lockINS_5mutexEEENS_6chrono10time_pointINS5_12system_clockENS5_8durationIxNS_5ratioILx1ELx1000000000EEEEEEE' type='func-type' binding='global-binding' visibility='default-visibility' is-defined='yes'/>
    <elf-symbol name='_ZNSt4__n118condition_variable4waitERNS_11unique_lockINS_5mutexEEE' type='func-type' binding='global-binding' visibility='default-visibility' is-defined='yes'/>
    <elf-symbol name='_ZNSt4__n118condition_variableD1Ev' type='func-type' binding='global-binding' visibility='default-visibility' is-defined='yes'/>
    <elf-symbol name='_ZNSt4__n118condition_variableD2Ev' type='func-type' binding='global-binding' visibility='default-visibility' alias='_ZNSt4__n118condition_variableD1Ev' is-defined='yes'/>
    <elf-symbol name='_ZNSt4__n118shared_timed_mutex11lock_sharedEv' type='func-type' binding='global-binding' visibility='default-visibility' is-defined='yes'/>
    <elf-symbol name='_ZNSt4__n118shared_timed_mutex13unlock_sharedEv' type='func-type' binding='global-binding' visibility='default-visibility' is-defined='yes'/>
    <elf-symbol name='_ZNSt4__n118shared_timed_mutex15try_lock_sharedEv' type='func-type' binding='global-binding' visibility='default-visibility' is-defined='yes'/>
    <elf-symbol name='_ZNSt4__n118shared_timed_mutex4lockEv' type='func-type' binding='global-binding' visibility='default-visibility' is-defined='yes'/>
    <elf-symbol name='_ZNSt4__n118shared_timed_mutex6unlockEv' type='func-type' binding='global-binding' visibility='default-visibility' is-defined='yes'/>
    <elf-symbol name='_ZNSt4__n118shared_timed_mutex8try_lockEv' type='func-type' binding='global-binding' visibility='default-visibility' is-defined='yes'/>
    <elf-symbol name='_ZNSt4__n118shared_timed_mutexC1Ev' type='func-type' binding='global-binding' visibility='default-visibility' is-defined='yes'/>
    <elf-symbol name='_ZNSt4__n118shared_timed_mutexC2Ev' type='func-type' binding='global-binding' visibility='default-visibility' alias='_ZNSt4__n118shared_timed_mutexC1Ev' is-defined='yes'/>
    <elf-symbol name='_ZNSt4__n119__shared_mutex_base11lock_sharedEv' type='func-type' binding='global-binding' visibility='default-visibility' is-defined='yes'/>
    <elf-symbol name='_ZNSt4__n119__shared_mutex_base13unlock_sharedEv' type='func-type' binding='global-binding' visibility='default-visibility' is-defined='yes'/>
    <elf-symbol name='_ZNSt4__n119__shared_mutex_base15try_lock_sharedEv' type='func-type' binding='global-binding' visibility='default-visibility' is-defined='yes'/>
    <elf-symbol name='_ZNSt4__n119__shared_mutex_base4lockEv' type='func-type' binding='global-binding' visibility='default-visibility' is-defined='yes'/>
    <elf-symbol name='_ZNSt4__n119__shared_mutex_base6unlockEv' type='func-type' binding='global-binding' visibility='default-visibility' is-defined='yes'/>
    <elf-symbol name='_ZNSt4__n119__shared_mutex_base8try_lockEv' type='func-type' binding='global-binding' visibility='default-visibility' is-defined='yes'/>
    <elf-symbol name='_ZNSt4__n119__shared_mutex_baseC1Ev' type='func-type' binding='global-binding' visibility='default-visibility' is-defined='yes'/>
    <elf-symbol name='_ZNSt4__n119__shared_mutex_baseC2Ev' type='func-type' binding='global-binding' visibility='default-visibility' alias='_ZNSt4__n119__shared_mutex_baseC1Ev' is-defined='yes'/>
    <elf-symbol name='_ZNSt4__n119__shared_weak_count10__add_weakEv' type='func-type' binding='global-binding' visibility='default-visibility' is-defined='yes'/>
    <elf-symbol name='_ZNSt4__n119__shared_weak_count12__add_sharedEv' type='func-type' binding='global-binding' visibility='default-visibility' is-defined='yes'/>
    <elf-symbol name='_ZNSt4__n119__shared_weak_count14__release_weakEv' type='func-type' binding='global-binding' visibility='default-visibility' is-defined='yes'/>
    <elf-symbol name='_ZNSt4__n119__shared_weak_count16__release_sharedEv' type='func-type' binding='global-binding' visibility='default-visibility' is-defined='yes'/>
    <elf-symbol name='_ZNSt4__n119__shared_weak_count4lockEv' type='func-type' binding='global-binding' visibility='default-visibility' is-defined='yes'/>
    <elf-symbol name='_ZNSt4__n119__shared_weak_countD0Ev' type='func-type' binding='global-binding' visibility='default-visibility' is-defined='yes'/>
    <elf-symbol name='_ZNSt4__n119__shared_weak_countD1Ev' type='func-type' binding='global-binding' visibility='default-visibility' is-defined='yes'/>
    <elf-symbol name='_ZNSt4__n119__shared_weak_countD2Ev' type='func-type' binding='global-binding' visibility='default-visibility' is-defined='yes'/>
    <elf-symbol name='_ZNSt4__n119__thread_local_dataEv' type='func-type' binding='global-binding' visibility='default-visibility' is-defined='yes'/>
    <elf-symbol name='_ZNSt4__n119basic_istringstreamIcNS_11char_traitsIcEENS_9allocatorIcEEEaSEOS5_' type='func-type' binding='weak-binding' visibility='default-visibility' is-defined='yes'/>
    <elf-symbol name='_ZNSt4__n119basic_ostringstreamIcNS_11char_traitsIcEENS_9allocatorIcEEEaSEOS5_' type='func-type' binding='weak-binding' visibility='default-visibility' is-defined='yes'/>
    <elf-symbol name='_ZNSt4__n119declare_no_pointersEPcj' type='func-type' binding='global-binding' visibility='default-visibility' is-defined='yes'/>
    <elf-symbol name='_ZNSt4__n120__get_collation_nameEPKc' type='func-type' binding='global-binding' visibility='default-visibility' is-defined='yes'/>
    <elf-symbol name='_ZNSt4__n120__libcpp_atomic_waitEPVKNS_17__cxx_atomic_implIiNS_22__cxx_atomic_base_implIiEEEEi' type='func-type' binding='global-binding' visibility='default-visibility' is-defined='yes'/>
    <elf-symbol name='_ZNSt4__n120__libcpp_atomic_waitEPVKvi' type='func-type' binding='global-binding' visibility='default-visibility' is-defined='yes'/>
    <elf-symbol name='_ZNSt4__n120__throw_system_errorEiPKc' type='func-type' binding='global-binding' visibility='default-visibility' is-defined='yes'/>
    <elf-symbol name='_ZNSt4__n121__throw_runtime_errorEPKc' type='func-type' binding='global-binding' visibility='default-visibility' is-defined='yes'/>
    <elf-symbol name='_ZNSt4__n121__undeclare_reachableEPv' type='func-type' binding='global-binding' visibility='default-visibility' is-defined='yes'/>
    <elf-symbol name='_ZNSt4__n121recursive_timed_mutex4lockEv' type='func-type' binding='global-binding' visibility='default-visibility' is-defined='yes'/>
    <elf-symbol name='_ZNSt4__n121recursive_timed_mutex6unlockEv' type='func-type' binding='global-binding' visibility='default-visibility' is-defined='yes'/>
    <elf-symbol name='_ZNSt4__n121recursive_timed_mutex8try_lockEv' type='func-type' binding='global-binding' visibility='default-visibility' is-defined='yes'/>
    <elf-symbol name='_ZNSt4__n121recursive_timed_mutexC1Ev' type='func-type' binding='global-binding' visibility='default-visibility' is-defined='yes'/>
    <elf-symbol name='_ZNSt4__n121recursive_timed_mutexC2Ev' type='func-type' binding='global-binding' visibility='default-visibility' alias='_ZNSt4__n121recursive_timed_mutexC1Ev' is-defined='yes'/>
    <elf-symbol name='_ZNSt4__n121recursive_timed_mutexD1Ev' type='func-type' binding='global-binding' visibility='default-visibility' is-defined='yes'/>
    <elf-symbol name='_ZNSt4__n121recursive_timed_mutexD2Ev' type='func-type' binding='global-binding' visibility='default-visibility' alias='_ZNSt4__n121recursive_timed_mutexD1Ev' is-defined='yes'/>
    <elf-symbol name='_ZNSt4__n121undeclare_no_pointersEPcj' type='func-type' binding='global-binding' visibility='default-visibility' is-defined='yes'/>
    <elf-symbol name='_ZNSt4__n122__libcpp_verbose_abortEPKcz' type='func-type' binding='weak-binding' visibility='default-visibility' is-defined='yes'/>
    <elf-symbol name='_ZNSt4__n123__cxx_atomic_notify_allEPVKNS_17__cxx_atomic_implIiNS_22__cxx_atomic_base_implIiEEEE' type='func-type' binding='global-binding' visibility='default-visibility' is-defined='yes'/>
    <elf-symbol name='_ZNSt4__n123__cxx_atomic_notify_allEPVKv' type='func-type' binding='global-binding' visibility='default-visibility' is-defined='yes'/>
    <elf-symbol name='_ZNSt4__n123__cxx_atomic_notify_oneEPVKNS_17__cxx_atomic_implIiNS_22__cxx_atomic_base_implIiEEEE' type='func-type' binding='global-binding' visibility='default-visibility' is-defined='yes'/>
    <elf-symbol name='_ZNSt4__n123__cxx_atomic_notify_oneEPVKv' type='func-type' binding='global-binding' visibility='default-visibility' is-defined='yes'/>
    <elf-symbol name='_ZNSt4__n123__libcpp_atomic_monitorEPVKNS_17__cxx_atomic_implIiNS_22__cxx_atomic_base_implIiEEEE' type='func-type' binding='global-binding' visibility='default-visibility' is-defined='yes'/>
    <elf-symbol name='_ZNSt4__n123__libcpp_atomic_monitorEPVKv' type='func-type' binding='global-binding' visibility='default-visibility' is-defined='yes'/>
    <elf-symbol name='_ZNSt4__n125notify_all_at_thread_exitERNS_18condition_variableENS_11unique_lockINS_5mutexEEE' type='func-type' binding='global-binding' visibility='default-visibility' is-defined='yes'/>
    <elf-symbol name='_ZNSt4__n127__insertion_sort_incompleteIRNS_6__lessIaaEEPaEEbT0_S5_T_' type='func-type' binding='weak-binding' visibility='default-visibility' is-defined='yes'/>
    <elf-symbol name='_ZNSt4__n127__insertion_sort_incompleteIRNS_6__lessIccEEPcEEbT0_S5_T_' type='func-type' binding='weak-binding' visibility='default-visibility' is-defined='yes'/>
    <elf-symbol name='_ZNSt4__n127__insertion_sort_incompleteIRNS_6__lessIddEEPdEEbT0_S5_T_' type='func-type' binding='weak-binding' visibility='default-visibility' is-defined='yes'/>
    <elf-symbol name='_ZNSt4__n127__insertion_sort_incompleteIRNS_6__lessIeeEEPeEEbT0_S5_T_' type='func-type' binding='weak-binding' visibility='default-visibility' is-defined='yes'/>
    <elf-symbol name='_ZNSt4__n127__insertion_sort_incompleteIRNS_6__lessIffEEPfEEbT0_S5_T_' type='func-type' binding='weak-binding' visibility='default-visibility' is-defined='yes'/>
    <elf-symbol name='_ZNSt4__n127__insertion_sort_incompleteIRNS_6__lessIhhEEPhEEbT0_S5_T_' type='func-type' binding='weak-binding' visibility='default-visibility' is-defined='yes'/>
    <elf-symbol name='_ZNSt4__n127__insertion_sort_incompleteIRNS_6__lessIiiEEPiEEbT0_S5_T_' type='func-type' binding='weak-binding' visibility='default-visibility' is-defined='yes'/>
    <elf-symbol name='_ZNSt4__n127__insertion_sort_incompleteIRNS_6__lessIjjEEPjEEbT0_S5_T_' type='func-type' binding='weak-binding' visibility='default-visibility' is-defined='yes'/>
    <elf-symbol name='_ZNSt4__n127__insertion_sort_incompleteIRNS_6__lessIllEEPlEEbT0_S5_T_' type='func-type' binding='weak-binding' visibility='default-visibility' is-defined='yes'/>
    <elf-symbol name='_ZNSt4__n127__insertion_sort_incompleteIRNS_6__lessImmEEPmEEbT0_S5_T_' type='func-type' binding='weak-binding' visibility='default-visibility' is-defined='yes'/>
    <elf-symbol name='_ZNSt4__n127__insertion_sort_incompleteIRNS_6__lessIssEEPsEEbT0_S5_T_' type='func-type' binding='weak-binding' visibility='default-visibility' is-defined='yes'/>
    <elf-symbol name='_ZNSt4__n127__insertion_sort_incompleteIRNS_6__lessIttEEPtEEbT0_S5_T_' type='func-type' binding='weak-binding' visibility='default-visibility' is-defined='yes'/>
    <elf-symbol name='_ZNSt4__n127__insertion_sort_incompleteIRNS_6__lessIwwEEPwEEbT0_S5_T_' type='func-type' binding='weak-binding' visibility='default-visibility' is-defined='yes'/>
    <elf-symbol name='_ZNSt4__n127__insertion_sort_incompleteIRNS_6__lessIxxEEPxEEbT0_S5_T_' type='func-type' binding='weak-binding' visibility='default-visibility' is-defined='yes'/>
    <elf-symbol name='_ZNSt4__n127__insertion_sort_incompleteIRNS_6__lessIyyEEPyEEbT0_S5_T_' type='func-type' binding='weak-binding' visibility='default-visibility' is-defined='yes'/>
    <elf-symbol name='_ZNSt4__n131__arrive_barrier_algorithm_baseEPNS_24__barrier_algorithm_baseEh' type='func-type' binding='global-binding' visibility='default-visibility' is-defined='yes'/>
    <elf-symbol name='_ZNSt4__n132__destroy_barrier_algorithm_baseEPNS_24__barrier_algorithm_baseE' type='func-type' binding='global-binding' visibility='default-visibility' is-defined='yes'/>
    <elf-symbol name='_ZNSt4__n134__construct_barrier_algorithm_baseERi' type='func-type' binding='global-binding' visibility='default-visibility' is-defined='yes'/>
    <elf-symbol name='_ZNSt4__n14__fs10filesystem10__absoluteERKNS1_4pathEPNS_10error_codeE' type='func-type' binding='global-binding' visibility='default-visibility' is-defined='yes'/>
    <elf-symbol name='_ZNSt4__n14__fs10filesystem10hash_valueERKNS1_4pathE' type='func-type' binding='global-binding' visibility='default-visibility' is-defined='yes'/>
    <elf-symbol name='_ZNSt4__n14__fs10filesystem11__canonicalERKNS1_4pathEPNS_10error_codeE' type='func-type' binding='global-binding' visibility='default-visibility' is-defined='yes'/>
    <elf-symbol name='_ZNSt4__n14__fs10filesystem11__copy_fileERKNS1_4pathES4_NS1_12copy_optionsEPNS_10error_codeE' type='func-type' binding='global-binding' visibility='default-visibility' is-defined='yes'/>
    <elf-symbol name='_ZNSt4__n14__fs10filesystem11__file_sizeERKNS1_4pathEPNS_10error_codeE' type='func-type' binding='global-binding' visibility='default-visibility' is-defined='yes'/>
    <elf-symbol name='_ZNSt4__n14__fs10filesystem12__equivalentERKNS1_4pathES4_PNS_10error_codeE' type='func-type' binding='global-binding' visibility='default-visibility' is-defined='yes'/>
    <elf-symbol name='_ZNSt4__n14__fs10filesystem12__remove_allERKNS1_4pathEPNS_10error_codeE' type='func-type' binding='global-binding' visibility='default-visibility' is-defined='yes'/>
    <elf-symbol name='_ZNSt4__n14__fs10filesystem13__fs_is_emptyERKNS1_4pathEPNS_10error_codeE' type='func-type' binding='global-binding' visibility='default-visibility' is-defined='yes'/>
    <elf-symbol name='_ZNSt4__n14__fs10filesystem13__permissionsERKNS1_4pathENS1_5permsENS1_12perm_optionsEPNS_10error_codeE' type='func-type' binding='global-binding' visibility='default-visibility' is-defined='yes'/>
    <elf-symbol name='_ZNSt4__n14__fs10filesystem13__resize_fileERKNS1_4pathEyPNS_10error_codeE' type='func-type' binding='global-binding' visibility='default-visibility' is-defined='yes'/>
    <elf-symbol name='_ZNSt4__n14__fs10filesystem14__copy_symlinkERKNS1_4pathES4_PNS_10error_codeE' type='func-type' binding='global-binding' visibility='default-visibility' is-defined='yes'/>
    <elf-symbol name='_ZNSt4__n14__fs10filesystem14__current_pathEPNS_10error_codeE' type='func-type' binding='global-binding' visibility='default-visibility' is-defined='yes'/>
    <elf-symbol name='_ZNSt4__n14__fs10filesystem14__current_pathERKNS1_4pathEPNS_10error_codeE' type='func-type' binding='global-binding' visibility='default-visibility' is-defined='yes'/>
    <elf-symbol name='_ZNSt4__n14__fs10filesystem14__read_symlinkERKNS1_4pathEPNS_10error_codeE' type='func-type' binding='global-binding' visibility='default-visibility' is-defined='yes'/>
    <elf-symbol name='_ZNSt4__n14__fs10filesystem15directory_entry12__do_refreshEv' type='func-type' binding='global-binding' visibility='default-visibility' is-defined='yes'/>
    <elf-symbol name='_ZNSt4__n14__fs10filesystem16_FilesystemClock3nowEv' type='func-type' binding='global-binding' visibility='default-visibility' is-defined='yes'/>
    <elf-symbol name='_ZNSt4__n14__fs10filesystem16__create_symlinkERKNS1_4pathES4_PNS_10error_codeE' type='func-type' binding='global-binding' visibility='default-visibility' is-defined='yes'/>
    <elf-symbol name='_ZNSt4__n14__fs10filesystem16__symlink_statusERKNS1_4pathEPNS_10error_codeE' type='func-type' binding='global-binding' visibility='default-visibility' is-defined='yes'/>
    <elf-symbol name='_ZNSt4__n14__fs10filesystem16filesystem_error13__create_whatEi' type='func-type' binding='global-binding' visibility='default-visibility' is-defined='yes'/>
    <elf-symbol name='_ZNSt4__n14__fs10filesystem16filesystem_errorD0Ev' type='func-type' binding='global-binding' visibility='default-visibility' is-defined='yes'/>
    <elf-symbol name='_ZNSt4__n14__fs10filesystem16filesystem_errorD1Ev' type='func-type' binding='global-binding' visibility='default-visibility' is-defined='yes'/>
    <elf-symbol name='_ZNSt4__n14__fs10filesystem16filesystem_errorD2Ev' type='func-type' binding='global-binding' visibility='default-visibility' alias='_ZNSt4__n14__fs10filesystem16filesystem_errorD1Ev' is-defined='yes'/>
    <elf-symbol name='_ZNSt4__n14__fs10filesystem17__hard_link_countERKNS1_4pathEPNS_10error_codeE' type='func-type' binding='global-binding' visibility='default-visibility' is-defined='yes'/>
    <elf-symbol name='_ZNSt4__n14__fs10filesystem17__last_write_timeERKNS1_4pathENS_6chrono10time_pointINS1_16_FilesystemClockENS5_8durationIxNS_5ratioILx1ELx1000000000EEEEEEEPNS_10error_codeE' type='func-type' binding='global-binding' visibility='default-visibility' is-defined='yes'/>
    <elf-symbol name='_ZNSt4__n14__fs10filesystem17__last_write_timeERKNS1_4pathEPNS_10error_codeE' type='func-type' binding='global-binding' visibility='default-visibility' is-defined='yes'/>
    <elf-symbol name='_ZNSt4__n14__fs10filesystem18__create_directoryERKNS1_4pathEPNS_10error_codeE' type='func-type' binding='global-binding' visibility='default-visibility' is-defined='yes'/>
    <elf-symbol name='_ZNSt4__n14__fs10filesystem18__create_directoryERKNS1_4pathES4_PNS_10error_codeE' type='func-type' binding='global-binding' visibility='default-visibility' is-defined='yes'/>
    <elf-symbol name='_ZNSt4__n14__fs10filesystem18__create_hard_linkERKNS1_4pathES4_PNS_10error_codeE' type='func-type' binding='global-binding' visibility='default-visibility' is-defined='yes'/>
    <elf-symbol name='_ZNSt4__n14__fs10filesystem18__weakly_canonicalERKNS1_4pathEPNS_10error_codeE' type='func-type' binding='global-binding' visibility='default-visibility' is-defined='yes'/>
    <elf-symbol name='_ZNSt4__n14__fs10filesystem18directory_iterator11__incrementEPNS_10error_codeE' type='func-type' binding='global-binding' visibility='default-visibility' is-defined='yes'/>
    <elf-symbol name='_ZNSt4__n14__fs10filesystem18directory_iteratorC1ERKNS1_4pathEPNS_10error_codeENS1_17directory_optionsE' type='func-type' binding='global-binding' visibility='default-visibility' alias='_ZNSt4__n14__fs10filesystem18directory_iteratorC2ERKNS1_4pathEPNS_10error_codeENS1_17directory_optionsE' is-defined='yes'/>
    <elf-symbol name='_ZNSt4__n14__fs10filesystem18directory_iteratorC2ERKNS1_4pathEPNS_10error_codeENS1_17directory_optionsE' type='func-type' binding='global-binding' visibility='default-visibility' is-defined='yes'/>
    <elf-symbol name='_ZNSt4__n14__fs10filesystem20__create_directoriesERKNS1_4pathEPNS_10error_codeE' type='func-type' binding='global-binding' visibility='default-visibility' is-defined='yes'/>
    <elf-symbol name='_ZNSt4__n14__fs10filesystem21__temp_directory_pathEPNS_10error_codeE' type='func-type' binding='global-binding' visibility='default-visibility' is-defined='yes'/>
    <elf-symbol name='_ZNSt4__n14__fs10filesystem26__create_directory_symlinkERKNS1_4pathES4_PNS_10error_codeE' type='func-type' binding='global-binding' visibility='default-visibility' is-defined='yes'/>
    <elf-symbol name='_ZNSt4__n14__fs10filesystem28recursive_directory_iterator11__incrementEPNS_10error_codeE' type='func-type' binding='global-binding' visibility='default-visibility' is-defined='yes'/>
    <elf-symbol name='_ZNSt4__n14__fs10filesystem28recursive_directory_iterator15__try_recursionEPNS_10error_codeE' type='func-type' binding='global-binding' visibility='default-visibility' is-defined='yes'/>
    <elf-symbol name='_ZNSt4__n14__fs10filesystem28recursive_directory_iterator5__popEPNS_10error_codeE' type='func-type' binding='global-binding' visibility='default-visibility' is-defined='yes'/>
    <elf-symbol name='_ZNSt4__n14__fs10filesystem28recursive_directory_iterator9__advanceEPNS_10error_codeE' type='func-type' binding='global-binding' visibility='default-visibility' is-defined='yes'/>
    <elf-symbol name='_ZNSt4__n14__fs10filesystem28recursive_directory_iteratorC1ERKNS1_4pathENS1_17directory_optionsEPNS_10error_codeE' type='func-type' binding='global-binding' visibility='default-visibility' is-defined='yes'/>
    <elf-symbol name='_ZNSt4__n14__fs10filesystem28recursive_directory_iteratorC2ERKNS1_4pathENS1_17directory_optionsEPNS_10error_codeE' type='func-type' binding='global-binding' visibility='default-visibility' alias='_ZNSt4__n14__fs10filesystem28recursive_directory_iteratorC1ERKNS1_4pathENS1_17directory_optionsEPNS_10error_codeE' is-defined='yes'/>
    <elf-symbol name='_ZNSt4__n14__fs10filesystem4path17replace_extensionERKS2_' type='func-type' binding='global-binding' visibility='default-visibility' is-defined='yes'/>
    <elf-symbol name='_ZNSt4__n14__fs10filesystem4path8iterator11__decrementEv' type='func-type' binding='global-binding' visibility='default-visibility' is-defined='yes'/>
    <elf-symbol name='_ZNSt4__n14__fs10filesystem4path8iterator11__incrementEv' type='func-type' binding='global-binding' visibility='default-visibility' is-defined='yes'/>
    <elf-symbol name='_ZNSt4__n14__fs10filesystem6__copyERKNS1_4pathES4_NS1_12copy_optionsEPNS_10error_codeE' type='func-type' binding='global-binding' visibility='default-visibility' is-defined='yes'/>
    <elf-symbol name='_ZNSt4__n14__fs10filesystem7__spaceERKNS1_4pathEPNS_10error_codeE' type='func-type' binding='global-binding' visibility='default-visibility' is-defined='yes'/>
    <elf-symbol name='_ZNSt4__n14__fs10filesystem8__removeERKNS1_4pathEPNS_10error_codeE' type='func-type' binding='global-binding' visibility='default-visibility' is-defined='yes'/>
    <elf-symbol name='_ZNSt4__n14__fs10filesystem8__renameERKNS1_4pathES4_PNS_10error_codeE' type='func-type' binding='global-binding' visibility='default-visibility' is-defined='yes'/>
    <elf-symbol name='_ZNSt4__n14__fs10filesystem8__statusERKNS1_4pathEPNS_10error_codeE' type='func-type' binding='global-binding' visibility='default-visibility' is-defined='yes'/>
    <elf-symbol name='_ZNSt4__n14stodERKNS_12basic_stringIcNS_11char_traitsIcEENS_9allocatorIcEEEEPj' type='func-type' binding='global-binding' visibility='default-visibility' is-defined='yes'/>
    <elf-symbol name='_ZNSt4__n14stodERKNS_12basic_stringIwNS_11char_traitsIwEENS_9allocatorIwEEEEPj' type='func-type' binding='global-binding' visibility='default-visibility' is-defined='yes'/>
    <elf-symbol name='_ZNSt4__n14stofERKNS_12basic_stringIcNS_11char_traitsIcEENS_9allocatorIcEEEEPj' type='func-type' binding='global-binding' visibility='default-visibility' is-defined='yes'/>
    <elf-symbol name='_ZNSt4__n14stofERKNS_12basic_stringIwNS_11char_traitsIwEENS_9allocatorIwEEEEPj' type='func-type' binding='global-binding' visibility='default-visibility' is-defined='yes'/>
    <elf-symbol name='_ZNSt4__n14stoiERKNS_12basic_stringIcNS_11char_traitsIcEENS_9allocatorIcEEEEPji' type='func-type' binding='global-binding' visibility='default-visibility' is-defined='yes'/>
    <elf-symbol name='_ZNSt4__n14stoiERKNS_12basic_stringIwNS_11char_traitsIwEENS_9allocatorIwEEEEPji' type='func-type' binding='global-binding' visibility='default-visibility' is-defined='yes'/>
    <elf-symbol name='_ZNSt4__n14stolERKNS_12basic_stringIcNS_11char_traitsIcEENS_9allocatorIcEEEEPji' type='func-type' binding='global-binding' visibility='default-visibility' is-defined='yes'/>
    <elf-symbol name='_ZNSt4__n14stolERKNS_12basic_stringIwNS_11char_traitsIwEENS_9allocatorIwEEEEPji' type='func-type' binding='global-binding' visibility='default-visibility' is-defined='yes'/>
    <elf-symbol name='_ZNSt4__n15alignEjjRPvRj' type='func-type' binding='global-binding' visibility='default-visibility' is-defined='yes'/>
    <elf-symbol name='_ZNSt4__n15ctypeIcE13classic_tableEv' type='func-type' binding='global-binding' visibility='default-visibility' is-defined='yes'/>
    <elf-symbol name='_ZNSt4__n15ctypeIcEC1EPKmbj' type='func-type' binding='global-binding' visibility='default-visibility' is-defined='yes'/>
    <elf-symbol name='_ZNSt4__n15ctypeIcEC2EPKmbj' type='func-type' binding='global-binding' visibility='default-visibility' alias='_ZNSt4__n15ctypeIcEC1EPKmbj' is-defined='yes'/>
    <elf-symbol name='_ZNSt4__n15ctypeIcED0Ev' type='func-type' binding='global-binding' visibility='default-visibility' is-defined='yes'/>
    <elf-symbol name='_ZNSt4__n15ctypeIcED1Ev' type='func-type' binding='global-binding' visibility='default-visibility' alias='_ZNSt4__n15ctypeIcED2Ev' is-defined='yes'/>
    <elf-symbol name='_ZNSt4__n15ctypeIcED2Ev' type='func-type' binding='global-binding' visibility='default-visibility' is-defined='yes'/>
    <elf-symbol name='_ZNSt4__n15ctypeIwED0Ev' type='func-type' binding='global-binding' visibility='default-visibility' is-defined='yes'/>
    <elf-symbol name='_ZNSt4__n15ctypeIwED1Ev' type='func-type' binding='global-binding' visibility='default-visibility' is-defined='yes'/>
    <elf-symbol name='_ZNSt4__n15ctypeIwED2Ev' type='func-type' binding='global-binding' visibility='default-visibility' is-defined='yes'/>
    <elf-symbol name='_ZNSt4__n15mutex4lockEv' type='func-type' binding='global-binding' visibility='default-visibility' is-defined='yes'/>
    <elf-symbol name='_ZNSt4__n15mutex6unlockEv' type='func-type' binding='global-binding' visibility='default-visibility' is-defined='yes'/>
    <elf-symbol name='_ZNSt4__n15mutex8try_lockEv' type='func-type' binding='global-binding' visibility='default-visibility' is-defined='yes'/>
    <elf-symbol name='_ZNSt4__n15mutexD1Ev' type='func-type' binding='global-binding' visibility='default-visibility' is-defined='yes'/>
    <elf-symbol name='_ZNSt4__n15mutexD2Ev' type='func-type' binding='global-binding' visibility='default-visibility' alias='_ZNSt4__n15mutexD1Ev' is-defined='yes'/>
    <elf-symbol name='_ZNSt4__n15stoldERKNS_12basic_stringIcNS_11char_traitsIcEENS_9allocatorIcEEEEPj' type='func-type' binding='global-binding' visibility='default-visibility' is-defined='yes'/>
    <elf-symbol name='_ZNSt4__n15stoldERKNS_12basic_stringIwNS_11char_traitsIwEENS_9allocatorIwEEEEPj' type='func-type' binding='global-binding' visibility='default-visibility' is-defined='yes'/>
    <elf-symbol name='_ZNSt4__n15stollERKNS_12basic_stringIcNS_11char_traitsIcEENS_9allocatorIcEEEEPji' type='func-type' binding='global-binding' visibility='default-visibility' is-defined='yes'/>
    <elf-symbol name='_ZNSt4__n15stollERKNS_12basic_stringIwNS_11char_traitsIwEENS_9allocatorIwEEEEPji' type='func-type' binding='global-binding' visibility='default-visibility' is-defined='yes'/>
    <elf-symbol name='_ZNSt4__n15stoulERKNS_12basic_stringIcNS_11char_traitsIcEENS_9allocatorIcEEEEPji' type='func-type' binding='global-binding' visibility='default-visibility' is-defined='yes'/>
    <elf-symbol name='_ZNSt4__n15stoulERKNS_12basic_stringIwNS_11char_traitsIwEENS_9allocatorIwEEEEPji' type='func-type' binding='global-binding' visibility='default-visibility' is-defined='yes'/>
    <elf-symbol name='_ZNSt4__n16__clocEv' type='func-type' binding='global-binding' visibility='default-visibility' is-defined='yes'/>
    <elf-symbol name='_ZNSt4__n16__itoa8__u32toaEjPc' type='func-type' binding='global-binding' visibility='default-visibility' is-defined='yes'/>
    <elf-symbol name='_ZNSt4__n16__itoa8__u64toaEyPc' type='func-type' binding='global-binding' visibility='default-visibility' is-defined='yes'/>
    <elf-symbol name='_ZNSt4__n16__sortIRNS_6__lessIaaEEPaEEvT0_S5_T_' type='func-type' binding='weak-binding' visibility='default-visibility' is-defined='yes'/>
    <elf-symbol name='_ZNSt4__n16__sortIRNS_6__lessIccEEPcEEvT0_S5_T_' type='func-type' binding='weak-binding' visibility='default-visibility' is-defined='yes'/>
    <elf-symbol name='_ZNSt4__n16__sortIRNS_6__lessIddEEPdEEvT0_S5_T_' type='func-type' binding='weak-binding' visibility='default-visibility' is-defined='yes'/>
    <elf-symbol name='_ZNSt4__n16__sortIRNS_6__lessIeeEEPeEEvT0_S5_T_' type='func-type' binding='weak-binding' visibility='default-visibility' is-defined='yes'/>
    <elf-symbol name='_ZNSt4__n16__sortIRNS_6__lessIffEEPfEEvT0_S5_T_' type='func-type' binding='weak-binding' visibility='default-visibility' is-defined='yes'/>
    <elf-symbol name='_ZNSt4__n16__sortIRNS_6__lessIhhEEPhEEvT0_S5_T_' type='func-type' binding='weak-binding' visibility='default-visibility' is-defined='yes'/>
    <elf-symbol name='_ZNSt4__n16__sortIRNS_6__lessIiiEEPiEEvT0_S5_T_' type='func-type' binding='weak-binding' visibility='default-visibility' is-defined='yes'/>
    <elf-symbol name='_ZNSt4__n16__sortIRNS_6__lessIjjEEPjEEvT0_S5_T_' type='func-type' binding='weak-binding' visibility='default-visibility' is-defined='yes'/>
    <elf-symbol name='_ZNSt4__n16__sortIRNS_6__lessIllEEPlEEvT0_S5_T_' type='func-type' binding='weak-binding' visibility='default-visibility' is-defined='yes'/>
    <elf-symbol name='_ZNSt4__n16__sortIRNS_6__lessImmEEPmEEvT0_S5_T_' type='func-type' binding='weak-binding' visibility='default-visibility' is-defined='yes'/>
    <elf-symbol name='_ZNSt4__n16__sortIRNS_6__lessIssEEPsEEvT0_S5_T_' type='func-type' binding='weak-binding' visibility='default-visibility' is-defined='yes'/>
    <elf-symbol name='_ZNSt4__n16__sortIRNS_6__lessIttEEPtEEvT0_S5_T_' type='func-type' binding='weak-binding' visibility='default-visibility' is-defined='yes'/>
    <elf-symbol name='_ZNSt4__n16__sortIRNS_6__lessIwwEEPwEEvT0_S5_T_' type='func-type' binding='weak-binding' visibility='default-visibility' is-defined='yes'/>
    <elf-symbol name='_ZNSt4__n16__sortIRNS_6__lessIxxEEPxEEvT0_S5_T_' type='func-type' binding='weak-binding' visibility='default-visibility' is-defined='yes'/>
    <elf-symbol name='_ZNSt4__n16__sortIRNS_6__lessIyyEEPyEEvT0_S5_T_' type='func-type' binding='weak-binding' visibility='default-visibility' is-defined='yes'/>
    <elf-symbol name='_ZNSt4__n16chrono12steady_clock3nowEv' type='func-type' binding='global-binding' visibility='default-visibility' is-defined='yes'/>
    <elf-symbol name='_ZNSt4__n16chrono12system_clock11from_time_tEx' type='func-type' binding='global-binding' visibility='default-visibility' is-defined='yes'/>
    <elf-symbol name='_ZNSt4__n16chrono12system_clock3nowEv' type='func-type' binding='global-binding' visibility='default-visibility' is-defined='yes'/>
    <elf-symbol name='_ZNSt4__n16chrono12system_clock9to_time_tERKNS0_10time_pointIS1_NS0_8durationIxNS_5ratioILx1ELx1000000EEEEEEE' type='func-type' binding='global-binding' visibility='default-visibility' is-defined='yes'/>
    <elf-symbol name='_ZNSt4__n16futureIvE3getEv' type='func-type' binding='global-binding' visibility='default-visibility' is-defined='yes'/>
    <elf-symbol name='_ZNSt4__n16futureIvEC1EPNS_17__assoc_sub_stateE' type='func-type' binding='global-binding' visibility='default-visibility' is-defined='yes'/>
    <elf-symbol name='_ZNSt4__n16futureIvEC2EPNS_17__assoc_sub_stateE' type='func-type' binding='global-binding' visibility='default-visibility' alias='_ZNSt4__n16futureIvEC1EPNS_17__assoc_sub_stateE' is-defined='yes'/>
    <elf-symbol name='_ZNSt4__n16futureIvED1Ev' type='func-type' binding='global-binding' visibility='default-visibility' is-defined='yes'/>
    <elf-symbol name='_ZNSt4__n16futureIvED2Ev' type='func-type' binding='global-binding' visibility='default-visibility' alias='_ZNSt4__n16futureIvED1Ev' is-defined='yes'/>
    <elf-symbol name='_ZNSt4__n16gslice6__initEj' type='func-type' binding='global-binding' visibility='default-visibility' is-defined='yes'/>
    <elf-symbol name='_ZNSt4__n16locale14__install_ctorERKS0_PNS0_5facetEl' type='func-type' binding='global-binding' visibility='default-visibility' is-defined='yes'/>
    <elf-symbol name='_ZNSt4__n16locale2id5__getEv' type='func-type' binding='global-binding' visibility='default-visibility' is-defined='yes'/>
    <elf-symbol name='_ZNSt4__n16locale2id6__initEv' type='func-type' binding='global-binding' visibility='default-visibility' is-defined='yes'/>
    <elf-symbol name='_ZNSt4__n16locale5facet16__on_zero_sharedEv' type='func-type' binding='global-binding' visibility='default-visibility' is-defined='yes'/>
    <elf-symbol name='_ZNSt4__n16locale5facetD0Ev' type='func-type' binding='global-binding' visibility='default-visibility' is-defined='yes'/>
    <elf-symbol name='_ZNSt4__n16locale5facetD1Ev' type='func-type' binding='global-binding' visibility='default-visibility' is-defined='yes'/>
    <elf-symbol name='_ZNSt4__n16locale5facetD2Ev' type='func-type' binding='global-binding' visibility='default-visibility' is-defined='yes'/>
    <elf-symbol name='_ZNSt4__n16locale6globalERKS0_' type='func-type' binding='global-binding' visibility='default-visibility' is-defined='yes'/>
    <elf-symbol name='_ZNSt4__n16locale7classicEv' type='func-type' binding='global-binding' visibility='default-visibility' is-defined='yes'/>
    <elf-symbol name='_ZNSt4__n16locale8__globalEv' type='func-type' binding='global-binding' visibility='default-visibility' is-defined='yes'/>
    <elf-symbol name='_ZNSt4__n16localeC1EPKc' type='func-type' binding='global-binding' visibility='default-visibility' is-defined='yes'/>
    <elf-symbol name='_ZNSt4__n16localeC1ERKNS_12basic_stringIcNS_11char_traitsIcEENS_9allocatorIcEEEE' type='func-type' binding='global-binding' visibility='default-visibility' is-defined='yes'/>
    <elf-symbol name='_ZNSt4__n16localeC1ERKS0_' type='func-type' binding='global-binding' visibility='default-visibility' is-defined='yes'/>
    <elf-symbol name='_ZNSt4__n16localeC1ERKS0_PKci' type='func-type' binding='global-binding' visibility='default-visibility' is-defined='yes'/>
    <elf-symbol name='_ZNSt4__n16localeC1ERKS0_RKNS_12basic_stringIcNS_11char_traitsIcEENS_9allocatorIcEEEEi' type='func-type' binding='global-binding' visibility='default-visibility' is-defined='yes'/>
    <elf-symbol name='_ZNSt4__n16localeC1ERKS0_S2_i' type='func-type' binding='global-binding' visibility='default-visibility' is-defined='yes'/>
    <elf-symbol name='_ZNSt4__n16localeC1Ev' type='func-type' binding='global-binding' visibility='default-visibility' is-defined='yes'/>
    <elf-symbol name='_ZNSt4__n16localeC2EPKc' type='func-type' binding='global-binding' visibility='default-visibility' alias='_ZNSt4__n16localeC1EPKc' is-defined='yes'/>
    <elf-symbol name='_ZNSt4__n16localeC2ERKNS_12basic_stringIcNS_11char_traitsIcEENS_9allocatorIcEEEE' type='func-type' binding='global-binding' visibility='default-visibility' alias='_ZNSt4__n16localeC1ERKNS_12basic_stringIcNS_11char_traitsIcEENS_9allocatorIcEEEE' is-defined='yes'/>
    <elf-symbol name='_ZNSt4__n16localeC2ERKS0_' type='func-type' binding='global-binding' visibility='default-visibility' alias='_ZNSt4__n16localeC1ERKS0_' is-defined='yes'/>
    <elf-symbol name='_ZNSt4__n16localeC2ERKS0_PKci' type='func-type' binding='global-binding' visibility='default-visibility' alias='_ZNSt4__n16localeC1ERKS0_PKci' is-defined='yes'/>
    <elf-symbol name='_ZNSt4__n16localeC2ERKS0_RKNS_12basic_stringIcNS_11char_traitsIcEENS_9allocatorIcEEEEi' type='func-type' binding='global-binding' visibility='default-visibility' alias='_ZNSt4__n16localeC1ERKS0_RKNS_12basic_stringIcNS_11char_traitsIcEENS_9allocatorIcEEEEi' is-defined='yes'/>
    <elf-symbol name='_ZNSt4__n16localeC2ERKS0_S2_i' type='func-type' binding='global-binding' visibility='default-visibility' alias='_ZNSt4__n16localeC1ERKS0_S2_i' is-defined='yes'/>
    <elf-symbol name='_ZNSt4__n16localeC2Ev' type='func-type' binding='global-binding' visibility='default-visibility' alias='_ZNSt4__n16localeC1Ev' is-defined='yes'/>
    <elf-symbol name='_ZNSt4__n16localeD1Ev' type='func-type' binding='global-binding' visibility='default-visibility' is-defined='yes'/>
    <elf-symbol name='_ZNSt4__n16localeD2Ev' type='func-type' binding='global-binding' visibility='default-visibility' alias='_ZNSt4__n16localeD1Ev' is-defined='yes'/>
    <elf-symbol name='_ZNSt4__n16localeaSERKS0_' type='func-type' binding='global-binding' visibility='default-visibility' is-defined='yes'/>
    <elf-symbol name='_ZNSt4__n16stoullERKNS_12basic_stringIcNS_11char_traitsIcEENS_9allocatorIcEEEEPji' type='func-type' binding='global-binding' visibility='default-visibility' is-defined='yes'/>
    <elf-symbol name='_ZNSt4__n16stoullERKNS_12basic_stringIwNS_11char_traitsIwEENS_9allocatorIwEEEEPji' type='func-type' binding='global-binding' visibility='default-visibility' is-defined='yes'/>
    <elf-symbol name='_ZNSt4__n16thread20hardware_concurrencyEv' type='func-type' binding='global-binding' visibility='default-visibility' is-defined='yes'/>
    <elf-symbol name='_ZNSt4__n16thread4joinEv' type='func-type' binding='global-binding' visibility='default-visibility' is-defined='yes'/>
    <elf-symbol name='_ZNSt4__n16thread6detachEv' type='func-type' binding='global-binding' visibility='default-visibility' is-defined='yes'/>
    <elf-symbol name='_ZNSt4__n16threadD1Ev' type='func-type' binding='global-binding' visibility='default-visibility' is-defined='yes'/>
    <elf-symbol name='_ZNSt4__n16threadD2Ev' type='func-type' binding='global-binding' visibility='default-visibility' alias='_ZNSt4__n16threadD1Ev' is-defined='yes'/>
    <elf-symbol name='_ZNSt4__n17__sort5IRNS_6__lessIeeEEPeEEjT0_S5_S5_S5_S5_T_' type='func-type' binding='weak-binding' visibility='default-visibility' is-defined='yes'/>
    <elf-symbol name='_ZNSt4__n17codecvtIDiDu11__mbstate_tED0Ev' type='func-type' binding='global-binding' visibility='default-visibility' is-defined='yes'/>
    <elf-symbol name='_ZNSt4__n17codecvtIDiDu11__mbstate_tED1Ev' type='func-type' binding='global-binding' visibility='default-visibility' is-defined='yes'/>
    <elf-symbol name='_ZNSt4__n17codecvtIDiDu11__mbstate_tED2Ev' type='func-type' binding='global-binding' visibility='default-visibility' is-defined='yes'/>
    <elf-symbol name='_ZNSt4__n17codecvtIDic11__mbstate_tED0Ev' type='func-type' binding='global-binding' visibility='default-visibility' is-defined='yes'/>
    <elf-symbol name='_ZNSt4__n17codecvtIDic11__mbstate_tED1Ev' type='func-type' binding='global-binding' visibility='default-visibility' is-defined='yes'/>
    <elf-symbol name='_ZNSt4__n17codecvtIDic11__mbstate_tED2Ev' type='func-type' binding='global-binding' visibility='default-visibility' is-defined='yes'/>
    <elf-symbol name='_ZNSt4__n17codecvtIDsDu11__mbstate_tED0Ev' type='func-type' binding='global-binding' visibility='default-visibility' is-defined='yes'/>
    <elf-symbol name='_ZNSt4__n17codecvtIDsDu11__mbstate_tED1Ev' type='func-type' binding='global-binding' visibility='default-visibility' is-defined='yes'/>
    <elf-symbol name='_ZNSt4__n17codecvtIDsDu11__mbstate_tED2Ev' type='func-type' binding='global-binding' visibility='default-visibility' is-defined='yes'/>
    <elf-symbol name='_ZNSt4__n17codecvtIDsc11__mbstate_tED0Ev' type='func-type' binding='global-binding' visibility='default-visibility' is-defined='yes'/>
    <elf-symbol name='_ZNSt4__n17codecvtIDsc11__mbstate_tED1Ev' type='func-type' binding='global-binding' visibility='default-visibility' is-defined='yes'/>
    <elf-symbol name='_ZNSt4__n17codecvtIDsc11__mbstate_tED2Ev' type='func-type' binding='global-binding' visibility='default-visibility' is-defined='yes'/>
    <elf-symbol name='_ZNSt4__n17codecvtIcc11__mbstate_tED0Ev' type='func-type' binding='global-binding' visibility='default-visibility' is-defined='yes'/>
    <elf-symbol name='_ZNSt4__n17codecvtIcc11__mbstate_tED1Ev' type='func-type' binding='global-binding' visibility='default-visibility' is-defined='yes'/>
    <elf-symbol name='_ZNSt4__n17codecvtIcc11__mbstate_tED2Ev' type='func-type' binding='global-binding' visibility='default-visibility' is-defined='yes'/>
    <elf-symbol name='_ZNSt4__n17codecvtIwc11__mbstate_tEC1EPKcj' type='func-type' binding='global-binding' visibility='default-visibility' alias='_ZNSt4__n17codecvtIwc11__mbstate_tEC2EPKcj' is-defined='yes'/>
    <elf-symbol name='_ZNSt4__n17codecvtIwc11__mbstate_tEC1Ej' type='func-type' binding='global-binding' visibility='default-visibility' is-defined='yes'/>
    <elf-symbol name='_ZNSt4__n17codecvtIwc11__mbstate_tEC2EPKcj' type='func-type' binding='global-binding' visibility='default-visibility' is-defined='yes'/>
    <elf-symbol name='_ZNSt4__n17codecvtIwc11__mbstate_tEC2Ej' type='func-type' binding='global-binding' visibility='default-visibility' alias='_ZNSt4__n17codecvtIwc11__mbstate_tEC1Ej' is-defined='yes'/>
    <elf-symbol name='_ZNSt4__n17codecvtIwc11__mbstate_tED0Ev' type='func-type' binding='global-binding' visibility='default-visibility' is-defined='yes'/>
    <elf-symbol name='_ZNSt4__n17codecvtIwc11__mbstate_tED1Ev' type='func-type' binding='global-binding' visibility='default-visibility' is-defined='yes'/>
    <elf-symbol name='_ZNSt4__n17codecvtIwc11__mbstate_tED2Ev' type='func-type' binding='global-binding' visibility='default-visibility' alias='_ZNSt4__n17codecvtIwc11__mbstate_tED1Ev' is-defined='yes'/>
    <elf-symbol name='_ZNSt4__n17collateIcED0Ev' type='func-type' binding='weak-binding' visibility='default-visibility' is-defined='yes'/>
    <elf-symbol name='_ZNSt4__n17collateIcED1Ev' type='func-type' binding='weak-binding' visibility='default-visibility' is-defined='yes'/>
    <elf-symbol name='_ZNSt4__n17collateIcED2Ev' type='func-type' binding='weak-binding' visibility='default-visibility' alias='_ZNSt4__n17collateIcED1Ev' is-defined='yes'/>
    <elf-symbol name='_ZNSt4__n17collateIwED0Ev' type='func-type' binding='weak-binding' visibility='default-visibility' is-defined='yes'/>
    <elf-symbol name='_ZNSt4__n17collateIwED1Ev' type='func-type' binding='weak-binding' visibility='default-visibility' is-defined='yes'/>
    <elf-symbol name='_ZNSt4__n17collateIwED2Ev' type='func-type' binding='weak-binding' visibility='default-visibility' alias='_ZNSt4__n17collateIwED1Ev' is-defined='yes'/>
    <elf-symbol name='_ZNSt4__n17promiseIvE10get_futureEv' type='func-type' binding='global-binding' visibility='default-visibility' is-defined='yes'/>
    <elf-symbol name='_ZNSt4__n17promiseIvE13set_exceptionESt13exception_ptr' type='func-type' binding='global-binding' visibility='default-visibility' is-defined='yes'/>
    <elf-symbol name='_ZNSt4__n17promiseIvE24set_value_at_thread_exitEv' type='func-type' binding='global-binding' visibility='default-visibility' is-defined='yes'/>
    <elf-symbol name='_ZNSt4__n17promiseIvE28set_exception_at_thread_exitESt13exception_ptr' type='func-type' binding='global-binding' visibility='default-visibility' is-defined='yes'/>
    <elf-symbol name='_ZNSt4__n17promiseIvE9set_valueEv' type='func-type' binding='global-binding' visibility='default-visibility' is-defined='yes'/>
    <elf-symbol name='_ZNSt4__n17promiseIvEC1Ev' type='func-type' binding='global-binding' visibility='default-visibility' is-defined='yes'/>
    <elf-symbol name='_ZNSt4__n17promiseIvEC2Ev' type='func-type' binding='global-binding' visibility='default-visibility' alias='_ZNSt4__n17promiseIvEC1Ev' is-defined='yes'/>
    <elf-symbol name='_ZNSt4__n17promiseIvED1Ev' type='func-type' binding='global-binding' visibility='default-visibility' is-defined='yes'/>
    <elf-symbol name='_ZNSt4__n17promiseIvED2Ev' type='func-type' binding='global-binding' visibility='default-visibility' alias='_ZNSt4__n17promiseIvED1Ev' is-defined='yes'/>
    <elf-symbol name='_ZNSt4__n18__rs_getEv' type='func-type' binding='global-binding' visibility='default-visibility' is-defined='yes'/>
    <elf-symbol name='_ZNSt4__n18__sp_mut4lockEv' type='func-type' binding='global-binding' visibility='default-visibility' is-defined='yes'/>
    <elf-symbol name='_ZNSt4__n18__sp_mut6unlockEv' type='func-type' binding='global-binding' visibility='default-visibility' is-defined='yes'/>
    <elf-symbol name='_ZNSt4__n18ios_base15sync_with_stdioEb' type='func-type' binding='global-binding' visibility='default-visibility' is-defined='yes'/>
    <elf-symbol name='_ZNSt4__n18ios_base16__call_callbacksENS0_5eventE' type='func-type' binding='global-binding' visibility='default-visibility' is-defined='yes'/>
    <elf-symbol name='_ZNSt4__n18ios_base17register_callbackEPFvNS0_5eventERS0_iEi' type='func-type' binding='global-binding' visibility='default-visibility' is-defined='yes'/>
    <elf-symbol name='_ZNSt4__n18ios_base33__set_badbit_and_consider_rethrowEv' type='func-type' binding='global-binding' visibility='default-visibility' is-defined='yes'/>
    <elf-symbol name='_ZNSt4__n18ios_base34__set_failbit_and_consider_rethrowEv' type='func-type' binding='global-binding' visibility='default-visibility' is-defined='yes'/>
    <elf-symbol name='_ZNSt4__n18ios_base4InitC1Ev' type='func-type' binding='global-binding' visibility='default-visibility' is-defined='yes'/>
    <elf-symbol name='_ZNSt4__n18ios_base4InitC2Ev' type='func-type' binding='global-binding' visibility='default-visibility' alias='_ZNSt4__n18ios_base4InitC1Ev' is-defined='yes'/>
    <elf-symbol name='_ZNSt4__n18ios_base4InitD1Ev' type='func-type' binding='global-binding' visibility='default-visibility' is-defined='yes'/>
    <elf-symbol name='_ZNSt4__n18ios_base4InitD2Ev' type='func-type' binding='global-binding' visibility='default-visibility' alias='_ZNSt4__n18ios_base4InitD1Ev' is-defined='yes'/>
    <elf-symbol name='_ZNSt4__n18ios_base4initEPv' type='func-type' binding='global-binding' visibility='default-visibility' is-defined='yes'/>
    <elf-symbol name='_ZNSt4__n18ios_base4moveERS0_' type='func-type' binding='global-binding' visibility='default-visibility' is-defined='yes'/>
    <elf-symbol name='_ZNSt4__n18ios_base4swapERS0_' type='func-type' binding='global-binding' visibility='default-visibility' is-defined='yes'/>
    <elf-symbol name='_ZNSt4__n18ios_base5clearEj' type='func-type' binding='global-binding' visibility='default-visibility' is-defined='yes'/>
    <elf-symbol name='_ZNSt4__n18ios_base5imbueERKNS_6localeE' type='func-type' binding='global-binding' visibility='default-visibility' is-defined='yes'/>
    <elf-symbol name='_ZNSt4__n18ios_base5iwordEi' type='func-type' binding='global-binding' visibility='default-visibility' is-defined='yes'/>
    <elf-symbol name='_ZNSt4__n18ios_base5pwordEi' type='func-type' binding='global-binding' visibility='default-visibility' is-defined='yes'/>
    <elf-symbol name='_ZNSt4__n18ios_base6xallocEv' type='func-type' binding='global-binding' visibility='default-visibility' is-defined='yes'/>
    <elf-symbol name='_ZNSt4__n18ios_base7copyfmtERKS0_' type='func-type' binding='global-binding' visibility='default-visibility' is-defined='yes'/>
    <elf-symbol name='_ZNSt4__n18ios_base7failureC1EPKcRKNS_10error_codeE' type='func-type' binding='global-binding' visibility='default-visibility' is-defined='yes'/>
    <elf-symbol name='_ZNSt4__n18ios_base7failureC1ERKNS_12basic_stringIcNS_11char_traitsIcEENS_9allocatorIcEEEERKNS_10error_codeE' type='func-type' binding='global-binding' visibility='default-visibility' is-defined='yes'/>
    <elf-symbol name='_ZNSt4__n18ios_base7failureC2EPKcRKNS_10error_codeE' type='func-type' binding='global-binding' visibility='default-visibility' alias='_ZNSt4__n18ios_base7failureC1EPKcRKNS_10error_codeE' is-defined='yes'/>
    <elf-symbol name='_ZNSt4__n18ios_base7failureC2ERKNS_12basic_stringIcNS_11char_traitsIcEENS_9allocatorIcEEEERKNS_10error_codeE' type='func-type' binding='global-binding' visibility='default-visibility' alias='_ZNSt4__n18ios_base7failureC1ERKNS_12basic_stringIcNS_11char_traitsIcEENS_9allocatorIcEEEERKNS_10error_codeE' is-defined='yes'/>
    <elf-symbol name='_ZNSt4__n18ios_base7failureD0Ev' type='func-type' binding='global-binding' visibility='default-visibility' is-defined='yes'/>
    <elf-symbol name='_ZNSt4__n18ios_base7failureD1Ev' type='func-type' binding='global-binding' visibility='default-visibility' is-defined='yes'/>
    <elf-symbol name='_ZNSt4__n18ios_base7failureD2Ev' type='func-type' binding='global-binding' visibility='default-visibility' alias='_ZNSt4__n18ios_base7failureD1Ev' is-defined='yes'/>
    <elf-symbol name='_ZNSt4__n18ios_baseD0Ev' type='func-type' binding='global-binding' visibility='default-visibility' is-defined='yes'/>
    <elf-symbol name='_ZNSt4__n18ios_baseD1Ev' type='func-type' binding='global-binding' visibility='default-visibility' alias='_ZNSt4__n18ios_baseD2Ev' is-defined='yes'/>
    <elf-symbol name='_ZNSt4__n18ios_baseD2Ev' type='func-type' binding='global-binding' visibility='default-visibility' is-defined='yes'/>
    <elf-symbol name='_ZNSt4__n18numpunctIcEC1Ej' type='func-type' binding='global-binding' visibility='default-visibility' is-defined='yes'/>
    <elf-symbol name='_ZNSt4__n18numpunctIcEC2Ej' type='func-type' binding='global-binding' visibility='default-visibility' alias='_ZNSt4__n18numpunctIcEC1Ej' is-defined='yes'/>
    <elf-symbol name='_ZNSt4__n18numpunctIcED0Ev' type='func-type' binding='global-binding' visibility='default-visibility' is-defined='yes'/>
    <elf-symbol name='_ZNSt4__n18numpunctIcED1Ev' type='func-type' binding='global-binding' visibility='default-visibility' is-defined='yes'/>
    <elf-symbol name='_ZNSt4__n18numpunctIcED2Ev' type='func-type' binding='global-binding' visibility='default-visibility' is-defined='yes'/>
    <elf-symbol name='_ZNSt4__n18numpunctIwEC1Ej' type='func-type' binding='global-binding' visibility='default-visibility' is-defined='yes'/>
    <elf-symbol name='_ZNSt4__n18numpunctIwEC2Ej' type='func-type' binding='global-binding' visibility='default-visibility' alias='_ZNSt4__n18numpunctIwEC1Ej' is-defined='yes'/>
    <elf-symbol name='_ZNSt4__n18numpunctIwED0Ev' type='func-type' binding='global-binding' visibility='default-visibility' is-defined='yes'/>
    <elf-symbol name='_ZNSt4__n18numpunctIwED1Ev' type='func-type' binding='global-binding' visibility='default-visibility' is-defined='yes'/>
    <elf-symbol name='_ZNSt4__n18numpunctIwED2Ev' type='func-type' binding='global-binding' visibility='default-visibility' is-defined='yes'/>
    <elf-symbol name='_ZNSt4__n18to_charsEPcS0_d' type='func-type' binding='global-binding' visibility='default-visibility' is-defined='yes'/>
    <elf-symbol name='_ZNSt4__n18to_charsEPcS0_dNS_12chars_formatE' type='func-type' binding='global-binding' visibility='default-visibility' is-defined='yes'/>
    <elf-symbol name='_ZNSt4__n18to_charsEPcS0_dNS_12chars_formatEi' type='func-type' binding='global-binding' visibility='default-visibility' is-defined='yes'/>
    <elf-symbol name='_ZNSt4__n18to_charsEPcS0_e' type='func-type' binding='global-binding' visibility='default-visibility' is-defined='yes'/>
    <elf-symbol name='_ZNSt4__n18to_charsEPcS0_eNS_12chars_formatE' type='func-type' binding='global-binding' visibility='default-visibility' is-defined='yes'/>
    <elf-symbol name='_ZNSt4__n18to_charsEPcS0_eNS_12chars_formatEi' type='func-type' binding='global-binding' visibility='default-visibility' is-defined='yes'/>
    <elf-symbol name='_ZNSt4__n18to_charsEPcS0_f' type='func-type' binding='global-binding' visibility='default-visibility' is-defined='yes'/>
    <elf-symbol name='_ZNSt4__n18to_charsEPcS0_fNS_12chars_formatE' type='func-type' binding='global-binding' visibility='default-visibility' is-defined='yes'/>
    <elf-symbol name='_ZNSt4__n18to_charsEPcS0_fNS_12chars_formatEi' type='func-type' binding='global-binding' visibility='default-visibility' is-defined='yes'/>
    <elf-symbol name='_ZNSt4__n18valarrayIjE6resizeEjj' type='func-type' binding='weak-binding' visibility='default-visibility' is-defined='yes'/>
    <elf-symbol name='_ZNSt4__n18valarrayIjEC1Ej' type='func-type' binding='weak-binding' visibility='default-visibility' is-defined='yes'/>
    <elf-symbol name='_ZNSt4__n18valarrayIjEC2Ej' type='func-type' binding='weak-binding' visibility='default-visibility' alias='_ZNSt4__n18valarrayIjEC1Ej' is-defined='yes'/>
    <elf-symbol name='_ZNSt4__n18valarrayIjED1Ev' type='func-type' binding='weak-binding' visibility='default-visibility' is-defined='yes'/>
    <elf-symbol name='_ZNSt4__n18valarrayIjED2Ev' type='func-type' binding='weak-binding' visibility='default-visibility' alias='_ZNSt4__n18valarrayIjED1Ev' is-defined='yes'/>
    <elf-symbol name='_ZNSt4__n19__num_getIcE17__stage2_int_loopEciPcRS2_RjcRKNS_12basic_stringIcNS_11char_traitsIcEENS_9allocatorIcEEEEPjRSD_S2_' type='func-type' binding='weak-binding' visibility='default-visibility' is-defined='yes'/>
    <elf-symbol name='_ZNSt4__n19__num_getIcE17__stage2_int_prepERNS_8ios_baseEPcRc' type='func-type' binding='weak-binding' visibility='default-visibility' is-defined='yes'/>
    <elf-symbol name='_ZNSt4__n19__num_getIcE19__stage2_float_loopEcRbRcPcRS4_ccRKNS_12basic_stringIcNS_11char_traitsIcEENS_9allocatorIcEEEEPjRSE_RjS4_' type='func-type' binding='weak-binding' visibility='default-visibility' is-defined='yes'/>
    <elf-symbol name='_ZNSt4__n19__num_getIcE19__stage2_float_prepERNS_8ios_baseEPcRcS5_' type='func-type' binding='weak-binding' visibility='default-visibility' is-defined='yes'/>
    <elf-symbol name='_ZNSt4__n19__num_getIwE17__stage2_int_loopEwiPcRS2_RjwRKNS_12basic_stringIcNS_11char_traitsIcEENS_9allocatorIcEEEEPjRSD_Pw' type='func-type' binding='weak-binding' visibility='default-visibility' is-defined='yes'/>
    <elf-symbol name='_ZNSt4__n19__num_getIwE17__stage2_int_prepERNS_8ios_baseEPwRw' type='func-type' binding='weak-binding' visibility='default-visibility' is-defined='yes'/>
    <elf-symbol name='_ZNSt4__n19__num_getIwE19__stage2_float_loopEwRbRcPcRS4_wwRKNS_12basic_stringIcNS_11char_traitsIcEENS_9allocatorIcEEEEPjRSE_RjPw' type='func-type' binding='weak-binding' visibility='default-visibility' is-defined='yes'/>
    <elf-symbol name='_ZNSt4__n19__num_getIwE19__stage2_float_prepERNS_8ios_baseEPwRwS5_' type='func-type' binding='weak-binding' visibility='default-visibility' is-defined='yes'/>
    <elf-symbol name='_ZNSt4__n19__num_putIcE21__widen_and_group_intEPcS2_S2_S2_RS2_S3_RKNS_6localeE' type='func-type' binding='weak-binding' visibility='default-visibility' is-defined='yes'/>
    <elf-symbol name='_ZNSt4__n19__num_putIcE23__widen_and_group_floatEPcS2_S2_S2_RS2_S3_RKNS_6localeE' type='func-type' binding='weak-binding' visibility='default-visibility' is-defined='yes'/>
    <elf-symbol name='_ZNSt4__n19__num_putIwE21__widen_and_group_intEPcS2_S2_PwRS3_S4_RKNS_6localeE' type='func-type' binding='weak-binding' visibility='default-visibility' is-defined='yes'/>
    <elf-symbol name='_ZNSt4__n19__num_putIwE23__widen_and_group_floatEPcS2_S2_PwRS3_S4_RKNS_6localeE' type='func-type' binding='weak-binding' visibility='default-visibility' is-defined='yes'/>
    <elf-symbol name='_ZNSt4__n19basic_iosIcNS_11char_traitsIcEEE7copyfmtERKS3_' type='func-type' binding='weak-binding' visibility='default-visibility' is-defined='yes'/>
    <elf-symbol name='_ZNSt4__n19basic_iosIcNS_11char_traitsIcEEED0Ev' type='func-type' binding='weak-binding' visibility='default-visibility' is-defined='yes'/>
    <elf-symbol name='_ZNSt4__n19basic_iosIcNS_11char_traitsIcEEED1Ev' type='func-type' binding='weak-binding' visibility='default-visibility' alias='_ZNSt4__n19basic_iosIcNS_11char_traitsIcEEED2Ev' is-defined='yes'/>
    <elf-symbol name='_ZNSt4__n19basic_iosIcNS_11char_traitsIcEEED2Ev' type='func-type' binding='weak-binding' visibility='default-visibility' is-defined='yes'/>
    <elf-symbol name='_ZNSt4__n19basic_iosIwNS_11char_traitsIwEEE7copyfmtERKS3_' type='func-type' binding='weak-binding' visibility='default-visibility' is-defined='yes'/>
    <elf-symbol name='_ZNSt4__n19basic_iosIwNS_11char_traitsIwEEED0Ev' type='func-type' binding='weak-binding' visibility='default-visibility' is-defined='yes'/>
    <elf-symbol name='_ZNSt4__n19basic_iosIwNS_11char_traitsIwEEED1Ev' type='func-type' binding='weak-binding' visibility='default-visibility' alias='_ZNSt4__n19basic_iosIwNS_11char_traitsIwEEED2Ev' is-defined='yes'/>
    <elf-symbol name='_ZNSt4__n19basic_iosIwNS_11char_traitsIwEEED2Ev' type='func-type' binding='weak-binding' visibility='default-visibility' is-defined='yes'/>
    <elf-symbol name='_ZNSt4__n19money_getIcNS_19istreambuf_iteratorIcNS_11char_traitsIcEEEEE8__do_getERS4_S4_bRKNS_6localeEjRjRbRKNS_5ctypeIcEERNS_10unique_ptrIcPFvPvEEERPcSM_' type='func-type' binding='weak-binding' visibility='default-visibility' is-defined='yes'/>
    <elf-symbol name='_ZNSt4__n19money_getIwNS_19istreambuf_iteratorIwNS_11char_traitsIwEEEEE8__do_getERS4_S4_bRKNS_6localeEjRjRbRKNS_5ctypeIwEERNS_10unique_ptrIwPFvPvEEERPwSM_' type='func-type' binding='weak-binding' visibility='default-visibility' is-defined='yes'/>
    <elf-symbol name='_ZNSt4__n19strstreamD0Ev' type='func-type' binding='global-binding' visibility='default-visibility' is-defined='yes'/>
    <elf-symbol name='_ZNSt4__n19strstreamD1Ev' type='func-type' binding='global-binding' visibility='default-visibility' is-defined='yes'/>
    <elf-symbol name='_ZNSt4__n19strstreamD2Ev' type='func-type' binding='global-binding' visibility='default-visibility' is-defined='yes'/>
    <elf-symbol name='_ZNSt4__n19to_stringEd' type='func-type' binding='global-binding' visibility='default-visibility' is-defined='yes'/>
    <elf-symbol name='_ZNSt4__n19to_stringEe' type='func-type' binding='global-binding' visibility='default-visibility' is-defined='yes'/>
    <elf-symbol name='_ZNSt4__n19to_stringEf' type='func-type' binding='global-binding' visibility='default-visibility' is-defined='yes'/>
    <elf-symbol name='_ZNSt4__n19to_stringEi' type='func-type' binding='global-binding' visibility='default-visibility' is-defined='yes'/>
    <elf-symbol name='_ZNSt4__n19to_stringEj' type='func-type' binding='global-binding' visibility='default-visibility' is-defined='yes'/>
    <elf-symbol name='_ZNSt4__n19to_stringEl' type='func-type' binding='global-binding' visibility='default-visibility' is-defined='yes'/>
    <elf-symbol name='_ZNSt4__n19to_stringEm' type='func-type' binding='global-binding' visibility='default-visibility' is-defined='yes'/>
    <elf-symbol name='_ZNSt4__n19to_stringEx' type='func-type' binding='global-binding' visibility='default-visibility' is-defined='yes'/>
    <elf-symbol name='_ZNSt4__n19to_stringEy' type='func-type' binding='global-binding' visibility='default-visibility' is-defined='yes'/>
    <elf-symbol name='_ZNSt4__n1plIcNS_11char_traitsIcEENS_9allocatorIcEEEENS_12basic_stringIT_T0_T1_EEPKS6_RKS9_' type='func-type' binding='weak-binding' visibility='default-visibility' is-defined='yes'/>
    <elf-symbol name='_ZNSt8bad_castC1Ev' type='func-type' binding='global-binding' visibility='default-visibility' is-defined='yes'/>
    <elf-symbol name='_ZNSt8bad_castC2Ev' type='func-type' binding='global-binding' visibility='default-visibility' alias='_ZNSt8bad_castC1Ev' is-defined='yes'/>
    <elf-symbol name='_ZNSt8bad_castD0Ev' type='func-type' binding='global-binding' visibility='default-visibility' is-defined='yes'/>
    <elf-symbol name='_ZNSt8bad_castD1Ev' type='func-type' binding='global-binding' visibility='default-visibility' alias='_ZNSt8bad_castD2Ev' is-defined='yes'/>
    <elf-symbol name='_ZNSt8bad_castD2Ev' type='func-type' binding='global-binding' visibility='default-visibility' is-defined='yes'/>
    <elf-symbol name='_ZNSt9bad_allocC1Ev' type='func-type' binding='global-binding' visibility='default-visibility' is-defined='yes'/>
    <elf-symbol name='_ZNSt9bad_allocC2Ev' type='func-type' binding='global-binding' visibility='default-visibility' alias='_ZNSt9bad_allocC1Ev' is-defined='yes'/>
    <elf-symbol name='_ZNSt9bad_allocD0Ev' type='func-type' binding='global-binding' visibility='default-visibility' is-defined='yes'/>
    <elf-symbol name='_ZNSt9bad_allocD1Ev' type='func-type' binding='global-binding' visibility='default-visibility' is-defined='yes'/>
    <elf-symbol name='_ZNSt9bad_allocD2Ev' type='func-type' binding='global-binding' visibility='default-visibility' is-defined='yes'/>
    <elf-symbol name='_ZNSt9exceptionD0Ev' type='func-type' binding='global-binding' visibility='default-visibility' is-defined='yes'/>
    <elf-symbol name='_ZNSt9exceptionD1Ev' type='func-type' binding='global-binding' visibility='default-visibility' is-defined='yes'/>
    <elf-symbol name='_ZNSt9exceptionD2Ev' type='func-type' binding='global-binding' visibility='default-visibility' is-defined='yes'/>
    <elf-symbol name='_ZNSt9type_infoD0Ev' type='func-type' binding='global-binding' visibility='default-visibility' is-defined='yes'/>
    <elf-symbol name='_ZNSt9type_infoD1Ev' type='func-type' binding='global-binding' visibility='default-visibility' alias='_ZNSt9type_infoD2Ev' is-defined='yes'/>
    <elf-symbol name='_ZNSt9type_infoD2Ev' type='func-type' binding='global-binding' visibility='default-visibility' is-defined='yes'/>
    <elf-symbol name='_ZSt10unexpectedv' type='func-type' binding='global-binding' visibility='default-visibility' is-defined='yes'/>
    <elf-symbol name='_ZSt13get_terminatev' type='func-type' binding='global-binding' visibility='default-visibility' is-defined='yes'/>
    <elf-symbol name='_ZSt13set_terminatePFvvE' type='func-type' binding='global-binding' visibility='default-visibility' is-defined='yes'/>
    <elf-symbol name='_ZSt14get_unexpectedv' type='func-type' binding='global-binding' visibility='default-visibility' is-defined='yes'/>
    <elf-symbol name='_ZSt14set_unexpectedPFvvE' type='func-type' binding='global-binding' visibility='default-visibility' is-defined='yes'/>
    <elf-symbol name='_ZSt15get_new_handlerv' type='func-type' binding='global-binding' visibility='default-visibility' is-defined='yes'/>
    <elf-symbol name='_ZSt15set_new_handlerPFvvE' type='func-type' binding='global-binding' visibility='default-visibility' is-defined='yes'/>
    <elf-symbol name='_ZSt17__throw_bad_allocv' type='func-type' binding='global-binding' visibility='default-visibility' is-defined='yes'/>
    <elf-symbol name='_ZSt17current_exceptionv' type='func-type' binding='global-binding' visibility='default-visibility' is-defined='yes'/>
    <elf-symbol name='_ZSt17rethrow_exceptionSt13exception_ptr' type='func-type' binding='global-binding' visibility='default-visibility' is-defined='yes'/>
    <elf-symbol name='_ZSt18uncaught_exceptionv' type='func-type' binding='global-binding' visibility='default-visibility' is-defined='yes'/>
    <elf-symbol name='_ZSt19uncaught_exceptionsv' type='func-type' binding='global-binding' visibility='default-visibility' is-defined='yes'/>
    <elf-symbol name='_ZSt9terminatev' type='func-type' binding='global-binding' visibility='default-visibility' is-defined='yes'/>
    <elf-symbol name='_ZThn8_NSt4__n114basic_iostreamIcNS_11char_traitsIcEEED0Ev' type='func-type' binding='weak-binding' visibility='default-visibility' is-defined='yes'/>
    <elf-symbol name='_ZThn8_NSt4__n114basic_iostreamIcNS_11char_traitsIcEEED1Ev' type='func-type' binding='weak-binding' visibility='default-visibility' is-defined='yes'/>
    <elf-symbol name='_ZThn8_NSt4__n19strstreamD0Ev' type='func-type' binding='global-binding' visibility='default-visibility' is-defined='yes'/>
    <elf-symbol name='_ZThn8_NSt4__n19strstreamD1Ev' type='func-type' binding='global-binding' visibility='default-visibility' is-defined='yes'/>
    <elf-symbol name='_ZTv0_n12_NSt4__n110istrstreamD0Ev' type='func-type' binding='global-binding' visibility='default-visibility' is-defined='yes'/>
    <elf-symbol name='_ZTv0_n12_NSt4__n110istrstreamD1Ev' type='func-type' binding='global-binding' visibility='default-visibility' is-defined='yes'/>
    <elf-symbol name='_ZTv0_n12_NSt4__n110ostrstreamD0Ev' type='func-type' binding='global-binding' visibility='default-visibility' is-defined='yes'/>
    <elf-symbol name='_ZTv0_n12_NSt4__n110ostrstreamD1Ev' type='func-type' binding='global-binding' visibility='default-visibility' is-defined='yes'/>
    <elf-symbol name='_ZTv0_n12_NSt4__n113basic_istreamIcNS_11char_traitsIcEEED0Ev' type='func-type' binding='weak-binding' visibility='default-visibility' is-defined='yes'/>
    <elf-symbol name='_ZTv0_n12_NSt4__n113basic_istreamIcNS_11char_traitsIcEEED1Ev' type='func-type' binding='weak-binding' visibility='default-visibility' is-defined='yes'/>
    <elf-symbol name='_ZTv0_n12_NSt4__n113basic_istreamIwNS_11char_traitsIwEEED0Ev' type='func-type' binding='weak-binding' visibility='default-visibility' is-defined='yes'/>
    <elf-symbol name='_ZTv0_n12_NSt4__n113basic_istreamIwNS_11char_traitsIwEEED1Ev' type='func-type' binding='weak-binding' visibility='default-visibility' is-defined='yes'/>
    <elf-symbol name='_ZTv0_n12_NSt4__n113basic_ostreamIcNS_11char_traitsIcEEED0Ev' type='func-type' binding='weak-binding' visibility='default-visibility' is-defined='yes'/>
    <elf-symbol name='_ZTv0_n12_NSt4__n113basic_ostreamIcNS_11char_traitsIcEEED1Ev' type='func-type' binding='weak-binding' visibility='default-visibility' is-defined='yes'/>
    <elf-symbol name='_ZTv0_n12_NSt4__n113basic_ostreamIwNS_11char_traitsIwEEED0Ev' type='func-type' binding='weak-binding' visibility='default-visibility' is-defined='yes'/>
    <elf-symbol name='_ZTv0_n12_NSt4__n113basic_ostreamIwNS_11char_traitsIwEEED1Ev' type='func-type' binding='weak-binding' visibility='default-visibility' is-defined='yes'/>
    <elf-symbol name='_ZTv0_n12_NSt4__n114basic_iostreamIcNS_11char_traitsIcEEED0Ev' type='func-type' binding='weak-binding' visibility='default-visibility' is-defined='yes'/>
    <elf-symbol name='_ZTv0_n12_NSt4__n114basic_iostreamIcNS_11char_traitsIcEEED1Ev' type='func-type' binding='weak-binding' visibility='default-visibility' is-defined='yes'/>
    <elf-symbol name='_ZTv0_n12_NSt4__n19strstreamD0Ev' type='func-type' binding='global-binding' visibility='default-visibility' is-defined='yes'/>
    <elf-symbol name='_ZTv0_n12_NSt4__n19strstreamD1Ev' type='func-type' binding='global-binding' visibility='default-visibility' is-defined='yes'/>
    <elf-symbol name='_ZdaPv' type='func-type' binding='weak-binding' visibility='default-visibility' is-defined='yes'/>
    <elf-symbol name='_ZdaPvRKSt9nothrow_t' type='func-type' binding='weak-binding' visibility='default-visibility' is-defined='yes'/>
    <elf-symbol name='_ZdaPvSt11align_val_t' type='func-type' binding='weak-binding' visibility='default-visibility' is-defined='yes'/>
    <elf-symbol name='_ZdaPvSt11align_val_tRKSt9nothrow_t' type='func-type' binding='weak-binding' visibility='default-visibility' is-defined='yes'/>
    <elf-symbol name='_ZdaPvj' type='func-type' binding='weak-binding' visibility='default-visibility' is-defined='yes'/>
    <elf-symbol name='_ZdaPvjSt11align_val_t' type='func-type' binding='weak-binding' visibility='default-visibility' is-defined='yes'/>
    <elf-symbol name='_ZdlPv' type='func-type' binding='weak-binding' visibility='default-visibility' is-defined='yes'/>
    <elf-symbol name='_ZdlPvRKSt9nothrow_t' type='func-type' binding='weak-binding' visibility='default-visibility' is-defined='yes'/>
    <elf-symbol name='_ZdlPvSt11align_val_t' type='func-type' binding='weak-binding' visibility='default-visibility' is-defined='yes'/>
    <elf-symbol name='_ZdlPvSt11align_val_tRKSt9nothrow_t' type='func-type' binding='weak-binding' visibility='default-visibility' is-defined='yes'/>
    <elf-symbol name='_ZdlPvj' type='func-type' binding='weak-binding' visibility='default-visibility' is-defined='yes'/>
    <elf-symbol name='_ZdlPvjSt11align_val_t' type='func-type' binding='weak-binding' visibility='default-visibility' is-defined='yes'/>
    <elf-symbol name='_Znaj' type='func-type' binding='weak-binding' visibility='default-visibility' is-defined='yes'/>
    <elf-symbol name='_ZnajRKSt9nothrow_t' type='func-type' binding='weak-binding' visibility='default-visibility' is-defined='yes'/>
    <elf-symbol name='_ZnajSt11align_val_t' type='func-type' binding='weak-binding' visibility='default-visibility' is-defined='yes'/>
    <elf-symbol name='_ZnajSt11align_val_tRKSt9nothrow_t' type='func-type' binding='weak-binding' visibility='default-visibility' is-defined='yes'/>
    <elf-symbol name='_Znwj' type='func-type' binding='weak-binding' visibility='default-visibility' is-defined='yes'/>
    <elf-symbol name='_ZnwjRKSt9nothrow_t' type='func-type' binding='weak-binding' visibility='default-visibility' is-defined='yes'/>
    <elf-symbol name='_ZnwjSt11align_val_t' type='func-type' binding='weak-binding' visibility='default-visibility' is-defined='yes'/>
    <elf-symbol name='_ZnwjSt11align_val_tRKSt9nothrow_t' type='func-type' binding='weak-binding' visibility='default-visibility' is-defined='yes'/>
    <elf-symbol name='__cxa_allocate_dependent_exception' type='func-type' binding='global-binding' visibility='default-visibility' is-defined='yes'/>
    <elf-symbol name='__cxa_allocate_exception' type='func-type' binding='global-binding' visibility='default-visibility' is-defined='yes'/>
    <elf-symbol name='__cxa_bad_cast' type='func-type' binding='global-binding' visibility='default-visibility' is-defined='yes'/>
    <elf-symbol name='__cxa_bad_typeid' type='func-type' binding='global-binding' visibility='default-visibility' is-defined='yes'/>
    <elf-symbol name='__cxa_begin_catch' type='func-type' binding='global-binding' visibility='default-visibility' is-defined='yes'/>
    <elf-symbol name='__cxa_call_unexpected' type='func-type' binding='global-binding' visibility='default-visibility' is-defined='yes'/>
    <elf-symbol name='__cxa_current_exception_type' type='func-type' binding='global-binding' visibility='default-visibility' is-defined='yes'/>
    <elf-symbol name='__cxa_current_primary_exception' type='func-type' binding='global-binding' visibility='default-visibility' is-defined='yes'/>
    <elf-symbol name='__cxa_decrement_exception_refcount' type='func-type' binding='global-binding' visibility='default-visibility' is-defined='yes'/>
    <elf-symbol name='__cxa_deleted_virtual' type='func-type' binding='global-binding' visibility='default-visibility' is-defined='yes'/>
    <elf-symbol name='__cxa_demangle' type='func-type' binding='global-binding' visibility='default-visibility' is-defined='yes'/>
    <elf-symbol name='__cxa_end_catch' type='func-type' binding='global-binding' visibility='default-visibility' is-defined='yes'/>
    <elf-symbol name='__cxa_free_dependent_exception' type='func-type' binding='global-binding' visibility='default-visibility' is-defined='yes'/>
    <elf-symbol name='__cxa_free_exception' type='func-type' binding='global-binding' visibility='default-visibility' is-defined='yes'/>
    <elf-symbol name='__cxa_get_exception_ptr' type='func-type' binding='global-binding' visibility='default-visibility' is-defined='yes'/>
    <elf-symbol name='__cxa_get_globals' type='func-type' binding='global-binding' visibility='default-visibility' is-defined='yes'/>
    <elf-symbol name='__cxa_get_globals_fast' type='func-type' binding='global-binding' visibility='default-visibility' is-defined='yes'/>
    <elf-symbol name='__cxa_guard_abort' type='func-type' binding='global-binding' visibility='default-visibility' is-defined='yes'/>
    <elf-symbol name='__cxa_guard_acquire' type='func-type' binding='global-binding' visibility='default-visibility' is-defined='yes'/>
    <elf-symbol name='__cxa_guard_release' type='func-type' binding='global-binding' visibility='default-visibility' is-defined='yes'/>
    <elf-symbol name='__cxa_increment_exception_refcount' type='func-type' binding='global-binding' visibility='default-visibility' is-defined='yes'/>
    <elf-symbol name='__cxa_pure_virtual' type='func-type' binding='global-binding' visibility='default-visibility' is-defined='yes'/>
    <elf-symbol name='__cxa_rethrow' type='func-type' binding='global-binding' visibility='default-visibility' is-defined='yes'/>
    <elf-symbol name='__cxa_rethrow_primary_exception' type='func-type' binding='global-binding' visibility='default-visibility' is-defined='yes'/>
    <elf-symbol name='__cxa_thread_atexit' type='func-type' binding='global-binding' visibility='default-visibility' is-defined='yes'/>
    <elf-symbol name='__cxa_throw' type='func-type' binding='global-binding' visibility='default-visibility' is-defined='yes'/>
    <elf-symbol name='__cxa_throw_bad_array_new_length' type='func-type' binding='global-binding' visibility='default-visibility' is-defined='yes'/>
    <elf-symbol name='__cxa_uncaught_exception' type='func-type' binding='global-binding' visibility='default-visibility' is-defined='yes'/>
    <elf-symbol name='__cxa_uncaught_exceptions' type='func-type' binding='global-binding' visibility='default-visibility' is-defined='yes'/>
    <elf-symbol name='__cxa_vec_cctor' type='func-type' binding='global-binding' visibility='default-visibility' is-defined='yes'/>
    <elf-symbol name='__cxa_vec_cleanup' type='func-type' binding='global-binding' visibility='default-visibility' is-defined='yes'/>
    <elf-symbol name='__cxa_vec_ctor' type='func-type' binding='global-binding' visibility='default-visibility' is-defined='yes'/>
    <elf-symbol name='__cxa_vec_delete' type='func-type' binding='global-binding' visibility='default-visibility' is-defined='yes'/>
    <elf-symbol name='__cxa_vec_delete2' type='func-type' binding='global-binding' visibility='default-visibility' is-defined='yes'/>
    <elf-symbol name='__cxa_vec_delete3' type='func-type' binding='global-binding' visibility='default-visibility' is-defined='yes'/>
    <elf-symbol name='__cxa_vec_dtor' type='func-type' binding='global-binding' visibility='default-visibility' is-defined='yes'/>
    <elf-symbol name='__cxa_vec_new' type='func-type' binding='global-binding' visibility='default-visibility' is-defined='yes'/>
    <elf-symbol name='__cxa_vec_new2' type='func-type' binding='global-binding' visibility='default-visibility' is-defined='yes'/>
    <elf-symbol name='__cxa_vec_new3' type='func-type' binding='global-binding' visibility='default-visibility' is-defined='yes'/>
    <elf-symbol name='__deregister_frame' type='func-type' binding='global-binding' visibility='default-visibility' is-defined='yes'/>
    <elf-symbol name='__dynamic_cast' type='func-type' binding='global-binding' visibility='default-visibility' is-defined='yes'/>
    <elf-symbol name='__emutls_get_address' type='func-type' binding='weak-binding' visibility='default-visibility' is-defined='yes'/>
    <elf-symbol name='__gxx_personality_v0' type='func-type' binding='global-binding' visibility='default-visibility' is-defined='yes'/>
    <elf-symbol name='__register_frame' type='func-type' binding='global-binding' visibility='default-visibility' is-defined='yes'/>
    <elf-symbol name='__unw_add_dynamic_eh_frame_section' type='func-type' binding='global-binding' visibility='default-visibility' is-defined='yes'/>
    <elf-symbol name='__unw_add_dynamic_fde' type='func-type' binding='global-binding' visibility='default-visibility' is-defined='yes'/>
    <elf-symbol name='__unw_remove_dynamic_eh_frame_section' type='func-type' binding='global-binding' visibility='default-visibility' is-defined='yes'/>
    <elf-symbol name='__unw_remove_dynamic_fde' type='func-type' binding='global-binding' visibility='default-visibility' is-defined='yes'/>
    <elf-symbol name='_fini' type='func-type' binding='global-binding' visibility='default-visibility' is-defined='yes'/>
    <elf-symbol name='_init' type='func-type' binding='global-binding' visibility='default-visibility' is-defined='yes'/>
    <elf-symbol name='unw_get_fpreg' type='func-type' binding='weak-binding' visibility='default-visibility' is-defined='yes'/>
    <elf-symbol name='unw_get_proc_info' type='func-type' binding='weak-binding' visibility='default-visibility' is-defined='yes'/>
    <elf-symbol name='unw_get_proc_name' type='func-type' binding='weak-binding' visibility='default-visibility' is-defined='yes'/>
    <elf-symbol name='unw_get_reg' type='func-type' binding='weak-binding' visibility='default-visibility' is-defined='yes'/>
    <elf-symbol name='unw_getcontext' type='func-type' binding='weak-binding' visibility='default-visibility' is-defined='yes'/>
    <elf-symbol name='unw_init_local' type='func-type' binding='weak-binding' visibility='default-visibility' is-defined='yes'/>
    <elf-symbol name='unw_is_fpreg' type='func-type' binding='weak-binding' visibility='default-visibility' is-defined='yes'/>
    <elf-symbol name='unw_is_signal_frame' type='func-type' binding='weak-binding' visibility='default-visibility' is-defined='yes'/>
    <elf-symbol name='unw_iterate_dwarf_unwind_cache' type='func-type' binding='weak-binding' visibility='default-visibility' is-defined='yes'/>
    <elf-symbol name='unw_regname' type='func-type' binding='weak-binding' visibility='default-visibility' is-defined='yes'/>
    <elf-symbol name='unw_resume' type='func-type' binding='weak-binding' visibility='default-visibility' is-defined='yes'/>
    <elf-symbol name='unw_set_fpreg' type='func-type' binding='weak-binding' visibility='default-visibility' is-defined='yes'/>
    <elf-symbol name='unw_set_reg' type='func-type' binding='weak-binding' visibility='default-visibility' is-defined='yes'/>
    <elf-symbol name='unw_step' type='func-type' binding='weak-binding' visibility='default-visibility' is-defined='yes'/>
  </elf-function-symbols>
  <elf-variable-symbols>
    <elf-symbol name='_ZNSt4__n110adopt_lockE' size='1' type='object-type' binding='global-binding' visibility='default-visibility' is-defined='yes'/>
    <elf-symbol name='_ZNSt4__n110ctype_base5alnumE' size='4' type='object-type' binding='global-binding' visibility='default-visibility' is-defined='yes'/>
    <elf-symbol name='_ZNSt4__n110ctype_base5alphaE' size='4' type='object-type' binding='global-binding' visibility='default-visibility' is-defined='yes'/>
    <elf-symbol name='_ZNSt4__n110ctype_base5blankE' size='4' type='object-type' binding='global-binding' visibility='default-visibility' is-defined='yes'/>
    <elf-symbol name='_ZNSt4__n110ctype_base5cntrlE' size='4' type='object-type' binding='global-binding' visibility='default-visibility' is-defined='yes'/>
    <elf-symbol name='_ZNSt4__n110ctype_base5digitE' size='4' type='object-type' binding='global-binding' visibility='default-visibility' is-defined='yes'/>
    <elf-symbol name='_ZNSt4__n110ctype_base5graphE' size='4' type='object-type' binding='global-binding' visibility='default-visibility' is-defined='yes'/>
    <elf-symbol name='_ZNSt4__n110ctype_base5lowerE' size='4' type='object-type' binding='global-binding' visibility='default-visibility' is-defined='yes'/>
    <elf-symbol name='_ZNSt4__n110ctype_base5printE' size='4' type='object-type' binding='global-binding' visibility='default-visibility' is-defined='yes'/>
    <elf-symbol name='_ZNSt4__n110ctype_base5punctE' size='4' type='object-type' binding='global-binding' visibility='default-visibility' is-defined='yes'/>
    <elf-symbol name='_ZNSt4__n110ctype_base5spaceE' size='4' type='object-type' binding='global-binding' visibility='default-visibility' is-defined='yes'/>
    <elf-symbol name='_ZNSt4__n110ctype_base5upperE' size='4' type='object-type' binding='global-binding' visibility='default-visibility' is-defined='yes'/>
    <elf-symbol name='_ZNSt4__n110ctype_base6xdigitE' size='4' type='object-type' binding='global-binding' visibility='default-visibility' is-defined='yes'/>
    <elf-symbol name='_ZNSt4__n110defer_lockE' size='1' type='object-type' binding='global-binding' visibility='default-visibility' is-defined='yes'/>
    <elf-symbol name='_ZNSt4__n110moneypunctIcLb0EE2idE' size='8' type='object-type' binding='weak-binding' visibility='default-visibility' is-defined='yes'/>
    <elf-symbol name='_ZNSt4__n110moneypunctIcLb0EE4intlE' size='1' type='object-type' binding='weak-binding' visibility='default-visibility' is-defined='yes'/>
    <elf-symbol name='_ZNSt4__n110moneypunctIcLb1EE2idE' size='8' type='object-type' binding='weak-binding' visibility='default-visibility' is-defined='yes'/>
    <elf-symbol name='_ZNSt4__n110moneypunctIcLb1EE4intlE' size='1' type='object-type' binding='weak-binding' visibility='default-visibility' is-defined='yes'/>
    <elf-symbol name='_ZNSt4__n110moneypunctIwLb0EE2idE' size='8' type='object-type' binding='weak-binding' visibility='default-visibility' is-defined='yes'/>
    <elf-symbol name='_ZNSt4__n110moneypunctIwLb0EE4intlE' size='1' type='object-type' binding='weak-binding' visibility='default-visibility' is-defined='yes'/>
    <elf-symbol name='_ZNSt4__n110moneypunctIwLb1EE2idE' size='8' type='object-type' binding='weak-binding' visibility='default-visibility' is-defined='yes'/>
    <elf-symbol name='_ZNSt4__n110moneypunctIwLb1EE4intlE' size='1' type='object-type' binding='weak-binding' visibility='default-visibility' is-defined='yes'/>
    <elf-symbol name='_ZNSt4__n111try_to_lockE' size='1' type='object-type' binding='global-binding' visibility='default-visibility' is-defined='yes'/>
    <elf-symbol name='_ZNSt4__n112__rs_default4__c_E' size='4' type='object-type' binding='global-binding' visibility='default-visibility' is-defined='yes'/>
    <elf-symbol name='_ZNSt4__n112basic_stringIcNS_11char_traitsIcEENS_9allocatorIcEEE4nposE' size='4' type='object-type' binding='weak-binding' visibility='default-visibility' is-defined='yes'/>
    <elf-symbol name='_ZNSt4__n112basic_stringIwNS_11char_traitsIwEENS_9allocatorIwEEE4nposE' size='4' type='object-type' binding='weak-binding' visibility='default-visibility' is-defined='yes'/>
    <elf-symbol name='_ZNSt4__n112placeholders2_1E' size='1' type='object-type' binding='global-binding' visibility='default-visibility' is-defined='yes'/>
    <elf-symbol name='_ZNSt4__n112placeholders2_2E' size='1' type='object-type' binding='global-binding' visibility='default-visibility' is-defined='yes'/>
    <elf-symbol name='_ZNSt4__n112placeholders2_3E' size='1' type='object-type' binding='global-binding' visibility='default-visibility' is-defined='yes'/>
    <elf-symbol name='_ZNSt4__n112placeholders2_4E' size='1' type='object-type' binding='global-binding' visibility='default-visibility' is-defined='yes'/>
    <elf-symbol name='_ZNSt4__n112placeholders2_5E' size='1' type='object-type' binding='global-binding' visibility='default-visibility' is-defined='yes'/>
    <elf-symbol name='_ZNSt4__n112placeholders2_6E' size='1' type='object-type' binding='global-binding' visibility='default-visibility' is-defined='yes'/>
    <elf-symbol name='_ZNSt4__n112placeholders2_7E' size='1' type='object-type' binding='global-binding' visibility='default-visibility' is-defined='yes'/>
    <elf-symbol name='_ZNSt4__n112placeholders2_8E' size='1' type='object-type' binding='global-binding' visibility='default-visibility' is-defined='yes'/>
    <elf-symbol name='_ZNSt4__n112placeholders2_9E' size='1' type='object-type' binding='global-binding' visibility='default-visibility' is-defined='yes'/>
    <elf-symbol name='_ZNSt4__n112placeholders3_10E' size='1' type='object-type' binding='global-binding' visibility='default-visibility' is-defined='yes'/>
    <elf-symbol name='_ZNSt4__n113allocator_argE' size='1' type='object-type' binding='global-binding' visibility='default-visibility' is-defined='yes'/>
    <elf-symbol name='_ZNSt4__n114__num_get_base5__srcE' size='33' type='object-type' binding='global-binding' visibility='default-visibility' is-defined='yes'/>
    <elf-symbol name='_ZNSt4__n119piecewise_constructE' size='1' type='object-type' binding='global-binding' visibility='default-visibility' is-defined='yes'/>
    <elf-symbol name='_ZNSt4__n13cinE' size='88' type='object-type' binding='global-binding' visibility='default-visibility' is-defined='yes'/>
    <elf-symbol name='_ZNSt4__n14__fs10filesystem16_FilesystemClock9is_steadyE' size='1' type='object-type' binding='weak-binding' visibility='default-visibility' is-defined='yes'/>
    <elf-symbol name='_ZNSt4__n14__fs10filesystem4path19preferred_separatorE' size='1' type='object-type' binding='weak-binding' visibility='default-visibility' is-defined='yes'/>
    <elf-symbol name='_ZNSt4__n14cerrE' size='84' type='object-type' binding='global-binding' visibility='default-visibility' is-defined='yes'/>
    <elf-symbol name='_ZNSt4__n14clogE' size='84' type='object-type' binding='global-binding' visibility='default-visibility' is-defined='yes'/>
    <elf-symbol name='_ZNSt4__n14coutE' size='84' type='object-type' binding='global-binding' visibility='default-visibility' is-defined='yes'/>
    <elf-symbol name='_ZNSt4__n14wcinE' size='88' type='object-type' binding='global-binding' visibility='default-visibility' is-defined='yes'/>
    <elf-symbol name='_ZNSt4__n15ctypeIcE10table_sizeE' size='4' type='object-type' binding='global-binding' visibility='default-visibility' is-defined='yes'/>
    <elf-symbol name='_ZNSt4__n15ctypeIcE2idE' size='8' type='object-type' binding='global-binding' visibility='default-visibility' is-defined='yes'/>
    <elf-symbol name='_ZNSt4__n15ctypeIwE2idE' size='8' type='object-type' binding='global-binding' visibility='default-visibility' is-defined='yes'/>
    <elf-symbol name='_ZNSt4__n15wcerrE' size='84' type='object-type' binding='global-binding' visibility='default-visibility' is-defined='yes'/>
    <elf-symbol name='_ZNSt4__n15wclogE' size='84' type='object-type' binding='global-binding' visibility='default-visibility' is-defined='yes'/>
    <elf-symbol name='_ZNSt4__n15wcoutE' size='84' type='object-type' binding='global-binding' visibility='default-visibility' is-defined='yes'/>
    <elf-symbol name='_ZNSt4__n16chrono12steady_clock9is_steadyE' size='1' type='object-type' binding='weak-binding' visibility='default-visibility' is-defined='yes'/>
    <elf-symbol name='_ZNSt4__n16chrono12system_clock9is_steadyE' size='1' type='object-type' binding='weak-binding' visibility='default-visibility' is-defined='yes'/>
    <elf-symbol name='_ZNSt4__n16locale2id9__next_idE' size='4' type='object-type' binding='global-binding' visibility='default-visibility' is-defined='yes'/>
    <elf-symbol name='_ZNSt4__n16locale3allE' size='4' type='object-type' binding='global-binding' visibility='default-visibility' is-defined='yes'/>
    <elf-symbol name='_ZNSt4__n16locale4noneE' size='4' type='object-type' binding='global-binding' visibility='default-visibility' is-defined='yes'/>
    <elf-symbol name='_ZNSt4__n16locale4timeE' size='4' type='object-type' binding='global-binding' visibility='default-visibility' is-defined='yes'/>
    <elf-symbol name='_ZNSt4__n16locale5ctypeE' size='4' type='object-type' binding='global-binding' visibility='default-visibility' is-defined='yes'/>
    <elf-symbol name='_ZNSt4__n16locale7collateE' size='4' type='object-type' binding='global-binding' visibility='default-visibility' is-defined='yes'/>
    <elf-symbol name='_ZNSt4__n16locale7numericE' size='4' type='object-type' binding='global-binding' visibility='default-visibility' is-defined='yes'/>
    <elf-symbol name='_ZNSt4__n16locale8messagesE' size='4' type='object-type' binding='global-binding' visibility='default-visibility' is-defined='yes'/>
    <elf-symbol name='_ZNSt4__n16locale8monetaryE' size='4' type='object-type' binding='global-binding' visibility='default-visibility' is-defined='yes'/>
    <elf-symbol name='_ZNSt4__n17codecvtIDiDu11__mbstate_tE2idE' size='8' type='object-type' binding='global-binding' visibility='default-visibility' is-defined='yes'/>
    <elf-symbol name='_ZNSt4__n17codecvtIDic11__mbstate_tE2idE' size='8' type='object-type' binding='global-binding' visibility='default-visibility' is-defined='yes'/>
    <elf-symbol name='_ZNSt4__n17codecvtIDsDu11__mbstate_tE2idE' size='8' type='object-type' binding='global-binding' visibility='default-visibility' is-defined='yes'/>
    <elf-symbol name='_ZNSt4__n17codecvtIDsc11__mbstate_tE2idE' size='8' type='object-type' binding='global-binding' visibility='default-visibility' is-defined='yes'/>
    <elf-symbol name='_ZNSt4__n17codecvtIcc11__mbstate_tE2idE' size='8' type='object-type' binding='global-binding' visibility='default-visibility' is-defined='yes'/>
    <elf-symbol name='_ZNSt4__n17codecvtIwc11__mbstate_tE2idE' size='8' type='object-type' binding='global-binding' visibility='default-visibility' is-defined='yes'/>
    <elf-symbol name='_ZNSt4__n17collateIcE2idE' size='8' type='object-type' binding='weak-binding' visibility='default-visibility' is-defined='yes'/>
    <elf-symbol name='_ZNSt4__n17collateIwE2idE' size='8' type='object-type' binding='weak-binding' visibility='default-visibility' is-defined='yes'/>
    <elf-symbol name='_ZNSt4__n17num_getIcNS_19istreambuf_iteratorIcNS_11char_traitsIcEEEEE2idE' size='8' type='object-type' binding='weak-binding' visibility='default-visibility' is-defined='yes'/>
    <elf-symbol name='_ZNSt4__n17num_getIwNS_19istreambuf_iteratorIwNS_11char_traitsIwEEEEE2idE' size='8' type='object-type' binding='weak-binding' visibility='default-visibility' is-defined='yes'/>
    <elf-symbol name='_ZNSt4__n17num_putIcNS_19ostreambuf_iteratorIcNS_11char_traitsIcEEEEE2idE' size='8' type='object-type' binding='weak-binding' visibility='default-visibility' is-defined='yes'/>
    <elf-symbol name='_ZNSt4__n17num_putIwNS_19ostreambuf_iteratorIwNS_11char_traitsIwEEEEE2idE' size='8' type='object-type' binding='weak-binding' visibility='default-visibility' is-defined='yes'/>
    <elf-symbol name='_ZNSt4__n18ios_base10floatfieldE' size='4' type='object-type' binding='global-binding' visibility='default-visibility' is-defined='yes'/>
    <elf-symbol name='_ZNSt4__n18ios_base10scientificE' size='4' type='object-type' binding='global-binding' visibility='default-visibility' is-defined='yes'/>
    <elf-symbol name='_ZNSt4__n18ios_base11adjustfieldE' size='4' type='object-type' binding='global-binding' visibility='default-visibility' is-defined='yes'/>
    <elf-symbol name='_ZNSt4__n18ios_base2inE' size='4' type='object-type' binding='global-binding' visibility='default-visibility' is-defined='yes'/>
    <elf-symbol name='_ZNSt4__n18ios_base3appE' size='4' type='object-type' binding='global-binding' visibility='default-visibility' is-defined='yes'/>
    <elf-symbol name='_ZNSt4__n18ios_base3ateE' size='4' type='object-type' binding='global-binding' visibility='default-visibility' is-defined='yes'/>
    <elf-symbol name='_ZNSt4__n18ios_base3decE' size='4' type='object-type' binding='global-binding' visibility='default-visibility' is-defined='yes'/>
    <elf-symbol name='_ZNSt4__n18ios_base3hexE' size='4' type='object-type' binding='global-binding' visibility='default-visibility' is-defined='yes'/>
    <elf-symbol name='_ZNSt4__n18ios_base3octE' size='4' type='object-type' binding='global-binding' visibility='default-visibility' is-defined='yes'/>
    <elf-symbol name='_ZNSt4__n18ios_base3outE' size='4' type='object-type' binding='global-binding' visibility='default-visibility' is-defined='yes'/>
    <elf-symbol name='_ZNSt4__n18ios_base4leftE' size='4' type='object-type' binding='global-binding' visibility='default-visibility' is-defined='yes'/>
    <elf-symbol name='_ZNSt4__n18ios_base5fixedE' size='4' type='object-type' binding='global-binding' visibility='default-visibility' is-defined='yes'/>
    <elf-symbol name='_ZNSt4__n18ios_base5rightE' size='4' type='object-type' binding='global-binding' visibility='default-visibility' is-defined='yes'/>
    <elf-symbol name='_ZNSt4__n18ios_base5truncE' size='4' type='object-type' binding='global-binding' visibility='default-visibility' is-defined='yes'/>
    <elf-symbol name='_ZNSt4__n18ios_base6badbitE' size='4' type='object-type' binding='global-binding' visibility='default-visibility' is-defined='yes'/>
    <elf-symbol name='_ZNSt4__n18ios_base6binaryE' size='4' type='object-type' binding='global-binding' visibility='default-visibility' is-defined='yes'/>
    <elf-symbol name='_ZNSt4__n18ios_base6eofbitE' size='4' type='object-type' binding='global-binding' visibility='default-visibility' is-defined='yes'/>
    <elf-symbol name='_ZNSt4__n18ios_base6skipwsE' size='4' type='object-type' binding='global-binding' visibility='default-visibility' is-defined='yes'/>
    <elf-symbol name='_ZNSt4__n18ios_base7failbitE' size='4' type='object-type' binding='global-binding' visibility='default-visibility' is-defined='yes'/>
    <elf-symbol name='_ZNSt4__n18ios_base7goodbitE' size='4' type='object-type' binding='global-binding' visibility='default-visibility' is-defined='yes'/>
    <elf-symbol name='_ZNSt4__n18ios_base7showposE' size='4' type='object-type' binding='global-binding' visibility='default-visibility' is-defined='yes'/>
    <elf-symbol name='_ZNSt4__n18ios_base7unitbufE' size='4' type='object-type' binding='global-binding' visibility='default-visibility' is-defined='yes'/>
    <elf-symbol name='_ZNSt4__n18ios_base8internalE' size='4' type='object-type' binding='global-binding' visibility='default-visibility' is-defined='yes'/>
    <elf-symbol name='_ZNSt4__n18ios_base8showbaseE' size='4' type='object-type' binding='global-binding' visibility='default-visibility' is-defined='yes'/>
    <elf-symbol name='_ZNSt4__n18ios_base9__xindex_E' size='4' type='object-type' binding='global-binding' visibility='default-visibility' is-defined='yes'/>
    <elf-symbol name='_ZNSt4__n18ios_base9basefieldE' size='4' type='object-type' binding='global-binding' visibility='default-visibility' is-defined='yes'/>
    <elf-symbol name='_ZNSt4__n18ios_base9boolalphaE' size='4' type='object-type' binding='global-binding' visibility='default-visibility' is-defined='yes'/>
    <elf-symbol name='_ZNSt4__n18ios_base9showpointE' size='4' type='object-type' binding='global-binding' visibility='default-visibility' is-defined='yes'/>
    <elf-symbol name='_ZNSt4__n18ios_base9uppercaseE' size='4' type='object-type' binding='global-binding' visibility='default-visibility' is-defined='yes'/>
    <elf-symbol name='_ZNSt4__n18messagesIcE2idE' size='8' type='object-type' binding='weak-binding' visibility='default-visibility' is-defined='yes'/>
    <elf-symbol name='_ZNSt4__n18messagesIwE2idE' size='8' type='object-type' binding='weak-binding' visibility='default-visibility' is-defined='yes'/>
    <elf-symbol name='_ZNSt4__n18numpunctIcE2idE' size='8' type='object-type' binding='global-binding' visibility='default-visibility' is-defined='yes'/>
    <elf-symbol name='_ZNSt4__n18numpunctIwE2idE' size='8' type='object-type' binding='global-binding' visibility='default-visibility' is-defined='yes'/>
    <elf-symbol name='_ZNSt4__n18time_getIcNS_19istreambuf_iteratorIcNS_11char_traitsIcEEEEE2idE' size='8' type='object-type' binding='weak-binding' visibility='default-visibility' is-defined='yes'/>
    <elf-symbol name='_ZNSt4__n18time_getIwNS_19istreambuf_iteratorIwNS_11char_traitsIwEEEEE2idE' size='8' type='object-type' binding='weak-binding' visibility='default-visibility' is-defined='yes'/>
    <elf-symbol name='_ZNSt4__n18time_putIcNS_19ostreambuf_iteratorIcNS_11char_traitsIcEEEEE2idE' size='8' type='object-type' binding='weak-binding' visibility='default-visibility' is-defined='yes'/>
    <elf-symbol name='_ZNSt4__n18time_putIwNS_19ostreambuf_iteratorIwNS_11char_traitsIwEEEEE2idE' size='8' type='object-type' binding='weak-binding' visibility='default-visibility' is-defined='yes'/>
    <elf-symbol name='_ZNSt4__n19money_getIcNS_19istreambuf_iteratorIcNS_11char_traitsIcEEEEE2idE' size='8' type='object-type' binding='weak-binding' visibility='default-visibility' is-defined='yes'/>
    <elf-symbol name='_ZNSt4__n19money_getIwNS_19istreambuf_iteratorIwNS_11char_traitsIwEEEEE2idE' size='8' type='object-type' binding='weak-binding' visibility='default-visibility' is-defined='yes'/>
    <elf-symbol name='_ZNSt4__n19money_putIcNS_19ostreambuf_iteratorIcNS_11char_traitsIcEEEEE2idE' size='8' type='object-type' binding='weak-binding' visibility='default-visibility' is-defined='yes'/>
    <elf-symbol name='_ZNSt4__n19money_putIwNS_19ostreambuf_iteratorIwNS_11char_traitsIwEEEEE2idE' size='8' type='object-type' binding='weak-binding' visibility='default-visibility' is-defined='yes'/>
    <elf-symbol name='_ZSt7nothrow' size='1' type='object-type' binding='global-binding' visibility='default-visibility' is-defined='yes'/>
    <elf-symbol name='_ZTCNSt4__n110istrstreamE0_NS_13basic_istreamIcNS_11char_traitsIcEEEE' size='40' type='object-type' binding='global-binding' visibility='default-visibility' is-defined='yes'/>
    <elf-symbol name='_ZTCNSt4__n110ostrstreamE0_NS_13basic_ostreamIcNS_11char_traitsIcEEEE' size='40' type='object-type' binding='global-binding' visibility='default-visibility' is-defined='yes'/>
    <elf-symbol name='_ZTCNSt4__n114basic_ifstreamIcNS_11char_traitsIcEEEE0_NS_13basic_istreamIcS2_EE' size='40' type='object-type' binding='weak-binding' visibility='default-visibility' is-defined='yes'/>
    <elf-symbol name='_ZTCNSt4__n114basic_iostreamIcNS_11char_traitsIcEEEE0_NS_13basic_istreamIcS2_EE' size='40' type='object-type' binding='weak-binding' visibility='default-visibility' is-defined='yes'/>
    <elf-symbol name='_ZTCNSt4__n114basic_iostreamIcNS_11char_traitsIcEEEE8_NS_13basic_ostreamIcS2_EE' size='40' type='object-type' binding='weak-binding' visibility='default-visibility' is-defined='yes'/>
    <elf-symbol name='_ZTCNSt4__n114basic_ofstreamIcNS_11char_traitsIcEEEE0_NS_13basic_ostreamIcS2_EE' size='40' type='object-type' binding='weak-binding' visibility='default-visibility' is-defined='yes'/>
    <elf-symbol name='_ZTCNSt4__n118basic_stringstreamIcNS_11char_traitsIcEENS_9allocatorIcEEEE0_NS_13basic_istreamIcS2_EE' size='40' type='object-type' binding='weak-binding' visibility='default-visibility' is-defined='yes'/>
    <elf-symbol name='_ZTCNSt4__n118basic_stringstreamIcNS_11char_traitsIcEENS_9allocatorIcEEEE0_NS_14basic_iostreamIcS2_EE' size='60' type='object-type' binding='weak-binding' visibility='default-visibility' is-defined='yes'/>
    <elf-symbol name='_ZTCNSt4__n118basic_stringstreamIcNS_11char_traitsIcEENS_9allocatorIcEEEE8_NS_13basic_ostreamIcS2_EE' size='40' type='object-type' binding='weak-binding' visibility='default-visibility' is-defined='yes'/>
    <elf-symbol name='_ZTCNSt4__n119basic_istringstreamIcNS_11char_traitsIcEENS_9allocatorIcEEEE0_NS_13basic_istreamIcS2_EE' size='40' type='object-type' binding='weak-binding' visibility='default-visibility' is-defined='yes'/>
    <elf-symbol name='_ZTCNSt4__n119basic_ostringstreamIcNS_11char_traitsIcEENS_9allocatorIcEEEE0_NS_13basic_ostreamIcS2_EE' size='40' type='object-type' binding='weak-binding' visibility='default-visibility' is-defined='yes'/>
    <elf-symbol name='_ZTCNSt4__n19strstreamE0_NS_13basic_istreamIcNS_11char_traitsIcEEEE' size='40' type='object-type' binding='global-binding' visibility='default-visibility' is-defined='yes'/>
    <elf-symbol name='_ZTCNSt4__n19strstreamE0_NS_14basic_iostreamIcNS_11char_traitsIcEEEE' size='60' type='object-type' binding='global-binding' visibility='default-visibility' is-defined='yes'/>
    <elf-symbol name='_ZTCNSt4__n19strstreamE8_NS_13basic_ostreamIcNS_11char_traitsIcEEEE' size='40' type='object-type' binding='global-binding' visibility='default-visibility' is-defined='yes'/>
    <elf-symbol name='_ZTIDh' size='8' type='object-type' binding='global-binding' visibility='default-visibility' is-defined='yes'/>
    <elf-symbol name='_ZTIDi' size='8' type='object-type' binding='global-binding' visibility='default-visibility' is-defined='yes'/>
    <elf-symbol name='_ZTIDn' size='8' type='object-type' binding='global-binding' visibility='default-visibility' is-defined='yes'/>
    <elf-symbol name='_ZTIDs' size='8' type='object-type' binding='global-binding' visibility='default-visibility' is-defined='yes'/>
    <elf-symbol name='_ZTIDu' size='8' type='object-type' binding='global-binding' visibility='default-visibility' is-defined='yes'/>
    <elf-symbol name='_ZTIN10__cxxabiv116__enum_type_infoE' size='12' type='object-type' binding='global-binding' visibility='default-visibility' is-defined='yes'/>
    <elf-symbol name='_ZTIN10__cxxabiv116__shim_type_infoE' size='12' type='object-type' binding='global-binding' visibility='default-visibility' is-defined='yes'/>
    <elf-symbol name='_ZTIN10__cxxabiv117__array_type_infoE' size='12' type='object-type' binding='global-binding' visibility='default-visibility' is-defined='yes'/>
    <elf-symbol name='_ZTIN10__cxxabiv117__class_type_infoE' size='12' type='object-type' binding='global-binding' visibility='default-visibility' is-defined='yes'/>
    <elf-symbol name='_ZTIN10__cxxabiv117__pbase_type_infoE' size='12' type='object-type' binding='global-binding' visibility='default-visibility' is-defined='yes'/>
    <elf-symbol name='_ZTIN10__cxxabiv119__pointer_type_infoE' size='12' type='object-type' binding='global-binding' visibility='default-visibility' is-defined='yes'/>
    <elf-symbol name='_ZTIN10__cxxabiv120__function_type_infoE' size='12' type='object-type' binding='global-binding' visibility='default-visibility' is-defined='yes'/>
    <elf-symbol name='_ZTIN10__cxxabiv120__si_class_type_infoE' size='12' type='object-type' binding='global-binding' visibility='default-visibility' is-defined='yes'/>
    <elf-symbol name='_ZTIN10__cxxabiv121__vmi_class_type_infoE' size='12' type='object-type' binding='global-binding' visibility='default-visibility' is-defined='yes'/>
    <elf-symbol name='_ZTIN10__cxxabiv123__fundamental_type_infoE' size='12' type='object-type' binding='global-binding' visibility='default-visibility' is-defined='yes'/>
    <elf-symbol name='_ZTIN10__cxxabiv129__pointer_to_member_type_infoE' size='12' type='object-type' binding='global-binding' visibility='default-visibility' is-defined='yes'/>
    <elf-symbol name='_ZTINSt12experimental15fundamentals_v112bad_any_castE' size='12' type='object-type' binding='global-binding' visibility='default-visibility' is-defined='yes'/>
    <elf-symbol name='_ZTINSt12experimental19bad_optional_accessE' size='12' type='object-type' binding='global-binding' visibility='default-visibility' is-defined='yes'/>
    <elf-symbol name='_ZTINSt4__n110__time_getE' size='8' type='object-type' binding='weak-binding' visibility='default-visibility' is-defined='yes'/>
    <elf-symbol name='_ZTINSt4__n110__time_putE' size='8' type='object-type' binding='weak-binding' visibility='default-visibility' is-defined='yes'/>
    <elf-symbol name='_ZTINSt4__n110ctype_baseE' size='8' type='object-type' binding='weak-binding' visibility='default-visibility' is-defined='yes'/>
    <elf-symbol name='_ZTINSt4__n110istrstreamE' size='12' type='object-type' binding='global-binding' visibility='default-visibility' is-defined='yes'/>
    <elf-symbol name='_ZTINSt4__n110money_baseE' size='8' type='object-type' binding='weak-binding' visibility='default-visibility' is-defined='yes'/>
    <elf-symbol name='_ZTINSt4__n110moneypunctIcLb0EEE' size='32' type='object-type' binding='weak-binding' visibility='default-visibility' is-defined='yes'/>
    <elf-symbol name='_ZTINSt4__n110moneypunctIcLb1EEE' size='32' type='object-type' binding='weak-binding' visibility='default-visibility' is-defined='yes'/>
    <elf-symbol name='_ZTINSt4__n110moneypunctIwLb0EEE' size='32' type='object-type' binding='weak-binding' visibility='default-visibility' is-defined='yes'/>
    <elf-symbol name='_ZTINSt4__n110moneypunctIwLb1EEE' size='32' type='object-type' binding='weak-binding' visibility='default-visibility' is-defined='yes'/>
    <elf-symbol name='_ZTINSt4__n110ostrstreamE' size='12' type='object-type' binding='global-binding' visibility='default-visibility' is-defined='yes'/>
    <elf-symbol name='_ZTINSt4__n111__money_getIcEE' size='8' type='object-type' binding='weak-binding' visibility='default-visibility' is-defined='yes'/>
    <elf-symbol name='_ZTINSt4__n111__money_getIwEE' size='8' type='object-type' binding='weak-binding' visibility='default-visibility' is-defined='yes'/>
    <elf-symbol name='_ZTINSt4__n111__money_putIcEE' size='8' type='object-type' binding='weak-binding' visibility='default-visibility' is-defined='yes'/>
    <elf-symbol name='_ZTINSt4__n111__money_putIwEE' size='8' type='object-type' binding='weak-binding' visibility='default-visibility' is-defined='yes'/>
    <elf-symbol name='_ZTINSt4__n111regex_errorE' size='12' type='object-type' binding='global-binding' visibility='default-visibility' is-defined='yes'/>
    <elf-symbol name='_ZTINSt4__n112bad_weak_ptrE' size='12' type='object-type' binding='global-binding' visibility='default-visibility' is-defined='yes'/>
    <elf-symbol name='_ZTINSt4__n112codecvt_baseE' size='8' type='object-type' binding='weak-binding' visibility='default-visibility' is-defined='yes'/>
    <elf-symbol name='_ZTINSt4__n112ctype_bynameIcEE' size='12' type='object-type' binding='global-binding' visibility='default-visibility' is-defined='yes'/>
    <elf-symbol name='_ZTINSt4__n112ctype_bynameIwEE' size='12' type='object-type' binding='global-binding' visibility='default-visibility' is-defined='yes'/>
    <elf-symbol name='_ZTINSt4__n112future_errorE' size='12' type='object-type' binding='global-binding' visibility='default-visibility' is-defined='yes'/>
    <elf-symbol name='_ZTINSt4__n112strstreambufE' size='12' type='object-type' binding='global-binding' visibility='default-visibility' is-defined='yes'/>
    <elf-symbol name='_ZTINSt4__n112system_errorE' size='12' type='object-type' binding='global-binding' visibility='default-visibility' is-defined='yes'/>
    <elf-symbol name='_ZTINSt4__n113basic_filebufIcNS_11char_traitsIcEEEE' size='12' type='object-type' binding='weak-binding' visibility='default-visibility' is-defined='yes'/>
    <elf-symbol name='_ZTINSt4__n113basic_istreamIcNS_11char_traitsIcEEEE' size='24' type='object-type' binding='weak-binding' visibility='default-visibility' is-defined='yes'/>
    <elf-symbol name='_ZTINSt4__n113basic_istreamIwNS_11char_traitsIwEEEE' size='24' type='object-type' binding='weak-binding' visibility='default-visibility' is-defined='yes'/>
    <elf-symbol name='_ZTINSt4__n113basic_ostreamIcNS_11char_traitsIcEEEE' size='24' type='object-type' binding='weak-binding' visibility='default-visibility' is-defined='yes'/>
    <elf-symbol name='_ZTINSt4__n113basic_ostreamIwNS_11char_traitsIwEEEE' size='24' type='object-type' binding='weak-binding' visibility='default-visibility' is-defined='yes'/>
    <elf-symbol name='_ZTINSt4__n113messages_baseE' size='8' type='object-type' binding='weak-binding' visibility='default-visibility' is-defined='yes'/>
    <elf-symbol name='_ZTINSt4__n114__codecvt_utf8IDiEE' size='12' type='object-type' binding='global-binding' visibility='default-visibility' is-defined='yes'/>
    <elf-symbol name='_ZTINSt4__n114__codecvt_utf8IDsEE' size='12' type='object-type' binding='global-binding' visibility='default-visibility' is-defined='yes'/>
    <elf-symbol name='_ZTINSt4__n114__codecvt_utf8IwEE' size='12' type='object-type' binding='global-binding' visibility='default-visibility' is-defined='yes'/>
    <elf-symbol name='_ZTINSt4__n114__num_get_baseE' size='8' type='object-type' binding='weak-binding' visibility='default-visibility' is-defined='yes'/>
    <elf-symbol name='_ZTINSt4__n114__num_put_baseE' size='8' type='object-type' binding='weak-binding' visibility='default-visibility' is-defined='yes'/>
    <elf-symbol name='_ZTINSt4__n114__shared_countE' size='8' type='object-type' binding='global-binding' visibility='default-visibility' is-defined='yes'/>
    <elf-symbol name='_ZTINSt4__n114basic_ifstreamIcNS_11char_traitsIcEEEE' size='12' type='object-type' binding='weak-binding' visibility='default-visibility' is-defined='yes'/>
    <elf-symbol name='_ZTINSt4__n114basic_iostreamIcNS_11char_traitsIcEEEE' size='32' type='object-type' binding='weak-binding' visibility='default-visibility' is-defined='yes'/>
    <elf-symbol name='_ZTINSt4__n114basic_ofstreamIcNS_11char_traitsIcEEEE' size='12' type='object-type' binding='weak-binding' visibility='default-visibility' is-defined='yes'/>
    <elf-symbol name='_ZTINSt4__n114codecvt_bynameIDiDu11__mbstate_tEE' size='12' type='object-type' binding='weak-binding' visibility='default-visibility' is-defined='yes'/>
    <elf-symbol name='_ZTINSt4__n114codecvt_bynameIDic11__mbstate_tEE' size='12' type='object-type' binding='weak-binding' visibility='default-visibility' is-defined='yes'/>
    <elf-symbol name='_ZTINSt4__n114codecvt_bynameIDsDu11__mbstate_tEE' size='12' type='object-type' binding='weak-binding' visibility='default-visibility' is-defined='yes'/>
    <elf-symbol name='_ZTINSt4__n114codecvt_bynameIDsc11__mbstate_tEE' size='12' type='object-type' binding='weak-binding' visibility='default-visibility' is-defined='yes'/>
    <elf-symbol name='_ZTINSt4__n114codecvt_bynameIcc11__mbstate_tEE' size='12' type='object-type' binding='weak-binding' visibility='default-visibility' is-defined='yes'/>
    <elf-symbol name='_ZTINSt4__n114codecvt_bynameIwc11__mbstate_tEE' size='12' type='object-type' binding='weak-binding' visibility='default-visibility' is-defined='yes'/>
    <elf-symbol name='_ZTINSt4__n114collate_bynameIcEE' size='12' type='object-type' binding='global-binding' visibility='default-visibility' is-defined='yes'/>
    <elf-symbol name='_ZTINSt4__n114collate_bynameIwEE' size='12' type='object-type' binding='global-binding' visibility='default-visibility' is-defined='yes'/>
    <elf-symbol name='_ZTINSt4__n114error_categoryE' size='8' type='object-type' binding='global-binding' visibility='default-visibility' is-defined='yes'/>
    <elf-symbol name='_ZTINSt4__n115__codecvt_utf16IDiLb0EEE' size='12' type='object-type' binding='global-binding' visibility='default-visibility' is-defined='yes'/>
    <elf-symbol name='_ZTINSt4__n115__codecvt_utf16IDiLb1EEE' size='12' type='object-type' binding='global-binding' visibility='default-visibility' is-defined='yes'/>
    <elf-symbol name='_ZTINSt4__n115__codecvt_utf16IDsLb0EEE' size='12' type='object-type' binding='global-binding' visibility='default-visibility' is-defined='yes'/>
    <elf-symbol name='_ZTINSt4__n115__codecvt_utf16IDsLb1EEE' size='12' type='object-type' binding='global-binding' visibility='default-visibility' is-defined='yes'/>
    <elf-symbol name='_ZTINSt4__n115__codecvt_utf16IwLb0EEE' size='12' type='object-type' binding='global-binding' visibility='default-visibility' is-defined='yes'/>
    <elf-symbol name='_ZTINSt4__n115__codecvt_utf16IwLb1EEE' size='12' type='object-type' binding='global-binding' visibility='default-visibility' is-defined='yes'/>
    <elf-symbol name='_ZTINSt4__n115basic_streambufIcNS_11char_traitsIcEEEE' size='8' type='object-type' binding='weak-binding' visibility='default-visibility' is-defined='yes'/>
    <elf-symbol name='_ZTINSt4__n115basic_streambufIwNS_11char_traitsIwEEEE' size='8' type='object-type' binding='weak-binding' visibility='default-visibility' is-defined='yes'/>
    <elf-symbol name='_ZTINSt4__n115basic_stringbufIcNS_11char_traitsIcEENS_9allocatorIcEEEE' size='12' type='object-type' binding='weak-binding' visibility='default-visibility' is-defined='yes'/>
    <elf-symbol name='_ZTINSt4__n115messages_bynameIcEE' size='12' type='object-type' binding='weak-binding' visibility='default-visibility' is-defined='yes'/>
    <elf-symbol name='_ZTINSt4__n115messages_bynameIwEE' size='12' type='object-type' binding='weak-binding' visibility='default-visibility' is-defined='yes'/>
    <elf-symbol name='_ZTINSt4__n115numpunct_bynameIcEE' size='12' type='object-type' binding='global-binding' visibility='default-visibility' is-defined='yes'/>
    <elf-symbol name='_ZTINSt4__n115numpunct_bynameIwEE' size='12' type='object-type' binding='global-binding' visibility='default-visibility' is-defined='yes'/>
    <elf-symbol name='_ZTINSt4__n115time_get_bynameIcNS_19istreambuf_iteratorIcNS_11char_traitsIcEEEEEE' size='32' type='object-type' binding='weak-binding' visibility='default-visibility' is-defined='yes'/>
    <elf-symbol name='_ZTINSt4__n115time_get_bynameIwNS_19istreambuf_iteratorIwNS_11char_traitsIwEEEEEE' size='32' type='object-type' binding='weak-binding' visibility='default-visibility' is-defined='yes'/>
    <elf-symbol name='_ZTINSt4__n115time_put_bynameIcNS_19ostreambuf_iteratorIcNS_11char_traitsIcEEEEEE' size='12' type='object-type' binding='weak-binding' visibility='default-visibility' is-defined='yes'/>
    <elf-symbol name='_ZTINSt4__n115time_put_bynameIwNS_19ostreambuf_iteratorIwNS_11char_traitsIwEEEEEE' size='12' type='object-type' binding='weak-binding' visibility='default-visibility' is-defined='yes'/>
    <elf-symbol name='_ZTINSt4__n116__narrow_to_utf8ILj16EEE' size='12' type='object-type' binding='global-binding' visibility='default-visibility' is-defined='yes'/>
    <elf-symbol name='_ZTINSt4__n116__narrow_to_utf8ILj32EEE' size='12' type='object-type' binding='global-binding' visibility='default-visibility' is-defined='yes'/>
    <elf-symbol name='_ZTINSt4__n117__assoc_sub_stateE' size='12' type='object-type' binding='global-binding' visibility='default-visibility' is-defined='yes'/>
    <elf-symbol name='_ZTINSt4__n117__widen_from_utf8ILj16EEE' size='12' type='object-type' binding='global-binding' visibility='default-visibility' is-defined='yes'/>
    <elf-symbol name='_ZTINSt4__n117__widen_from_utf8ILj32EEE' size='12' type='object-type' binding='global-binding' visibility='default-visibility' is-defined='yes'/>
    <elf-symbol name='_ZTINSt4__n117bad_function_callE' size='12' type='object-type' binding='global-binding' visibility='default-visibility' is-defined='yes'/>
    <elf-symbol name='_ZTINSt4__n117moneypunct_bynameIcLb0EEE' size='12' type='object-type' binding='weak-binding' visibility='default-visibility' is-defined='yes'/>
    <elf-symbol name='_ZTINSt4__n117moneypunct_bynameIcLb1EEE' size='12' type='object-type' binding='weak-binding' visibility='default-visibility' is-defined='yes'/>
    <elf-symbol name='_ZTINSt4__n117moneypunct_bynameIwLb0EEE' size='12' type='object-type' binding='weak-binding' visibility='default-visibility' is-defined='yes'/>
    <elf-symbol name='_ZTINSt4__n117moneypunct_bynameIwLb1EEE' size='12' type='object-type' binding='weak-binding' visibility='default-visibility' is-defined='yes'/>
    <elf-symbol name='_ZTINSt4__n118__time_get_storageIcEE' size='12' type='object-type' binding='weak-binding' visibility='default-visibility' is-defined='yes'/>
    <elf-symbol name='_ZTINSt4__n118__time_get_storageIwEE' size='12' type='object-type' binding='weak-binding' visibility='default-visibility' is-defined='yes'/>
    <elf-symbol name='_ZTINSt4__n118basic_stringstreamIcNS_11char_traitsIcEENS_9allocatorIcEEEE' size='12' type='object-type' binding='weak-binding' visibility='default-visibility' is-defined='yes'/>
    <elf-symbol name='_ZTINSt4__n119__shared_weak_countE' size='24' type='object-type' binding='global-binding' visibility='default-visibility' is-defined='yes'/>
    <elf-symbol name='_ZTINSt4__n119basic_istringstreamIcNS_11char_traitsIcEENS_9allocatorIcEEEE' size='12' type='object-type' binding='weak-binding' visibility='default-visibility' is-defined='yes'/>
    <elf-symbol name='_ZTINSt4__n119basic_ostringstreamIcNS_11char_traitsIcEENS_9allocatorIcEEEE' size='12' type='object-type' binding='weak-binding' visibility='default-visibility' is-defined='yes'/>
    <elf-symbol name='_ZTINSt4__n120__codecvt_utf8_utf16IDiEE' size='12' type='object-type' binding='global-binding' visibility='default-visibility' is-defined='yes'/>
    <elf-symbol name='_ZTINSt4__n120__codecvt_utf8_utf16IDsEE' size='12' type='object-type' binding='global-binding' visibility='default-visibility' is-defined='yes'/>
    <elf-symbol name='_ZTINSt4__n120__codecvt_utf8_utf16IwEE' size='12' type='object-type' binding='global-binding' visibility='default-visibility' is-defined='yes'/>
    <elf-symbol name='_ZTINSt4__n120__time_get_c_storageIcEE' size='8' type='object-type' binding='weak-binding' visibility='default-visibility' is-defined='yes'/>
    <elf-symbol name='_ZTINSt4__n120__time_get_c_storageIwEE' size='8' type='object-type' binding='weak-binding' visibility='default-visibility' is-defined='yes'/>
    <elf-symbol name='_ZTINSt4__n14__fs10filesystem16filesystem_errorE' size='12' type='object-type' binding='global-binding' visibility='default-visibility' is-defined='yes'/>
    <elf-symbol name='_ZTINSt4__n15ctypeIcEE' size='32' type='object-type' binding='global-binding' visibility='default-visibility' is-defined='yes'/>
    <elf-symbol name='_ZTINSt4__n15ctypeIwEE' size='32' type='object-type' binding='global-binding' visibility='default-visibility' is-defined='yes'/>
    <elf-symbol name='_ZTINSt4__n16locale5facetE' size='12' type='object-type' binding='global-binding' visibility='default-visibility' is-defined='yes'/>
    <elf-symbol name='_ZTINSt4__n17codecvtIDiDu11__mbstate_tEE' size='32' type='object-type' binding='global-binding' visibility='default-visibility' is-defined='yes'/>
    <elf-symbol name='_ZTINSt4__n17codecvtIDic11__mbstate_tEE' size='32' type='object-type' binding='global-binding' visibility='default-visibility' is-defined='yes'/>
    <elf-symbol name='_ZTINSt4__n17codecvtIDsDu11__mbstate_tEE' size='32' type='object-type' binding='global-binding' visibility='default-visibility' is-defined='yes'/>
    <elf-symbol name='_ZTINSt4__n17codecvtIDsc11__mbstate_tEE' size='32' type='object-type' binding='global-binding' visibility='default-visibility' is-defined='yes'/>
    <elf-symbol name='_ZTINSt4__n17codecvtIcc11__mbstate_tEE' size='32' type='object-type' binding='global-binding' visibility='default-visibility' is-defined='yes'/>
    <elf-symbol name='_ZTINSt4__n17codecvtIwc11__mbstate_tEE' size='32' type='object-type' binding='global-binding' visibility='default-visibility' is-defined='yes'/>
    <elf-symbol name='_ZTINSt4__n17collateIcEE' size='12' type='object-type' binding='weak-binding' visibility='default-visibility' is-defined='yes'/>
    <elf-symbol name='_ZTINSt4__n17collateIwEE' size='12' type='object-type' binding='weak-binding' visibility='default-visibility' is-defined='yes'/>
    <elf-symbol name='_ZTINSt4__n17num_getIcNS_19istreambuf_iteratorIcNS_11char_traitsIcEEEEEE' size='32' type='object-type' binding='weak-binding' visibility='default-visibility' is-defined='yes'/>
    <elf-symbol name='_ZTINSt4__n17num_getIwNS_19istreambuf_iteratorIwNS_11char_traitsIwEEEEEE' size='32' type='object-type' binding='weak-binding' visibility='default-visibility' is-defined='yes'/>
    <elf-symbol name='_ZTINSt4__n17num_putIcNS_19ostreambuf_iteratorIcNS_11char_traitsIcEEEEEE' size='32' type='object-type' binding='weak-binding' visibility='default-visibility' is-defined='yes'/>
    <elf-symbol name='_ZTINSt4__n17num_putIwNS_19ostreambuf_iteratorIwNS_11char_traitsIwEEEEEE' size='32' type='object-type' binding='weak-binding' visibility='default-visibility' is-defined='yes'/>
    <elf-symbol name='_ZTINSt4__n18ios_base7failureE' size='12' type='object-type' binding='global-binding' visibility='default-visibility' is-defined='yes'/>
    <elf-symbol name='_ZTINSt4__n18ios_baseE' size='8' type='object-type' binding='global-binding' visibility='default-visibility' is-defined='yes'/>
    <elf-symbol name='_ZTINSt4__n18messagesIcEE' size='32' type='object-type' binding='weak-binding' visibility='default-visibility' is-defined='yes'/>
    <elf-symbol name='_ZTINSt4__n18messagesIwEE' size='32' type='object-type' binding='weak-binding' visibility='default-visibility' is-defined='yes'/>
    <elf-symbol name='_ZTINSt4__n18numpunctIcEE' size='12' type='object-type' binding='global-binding' visibility='default-visibility' is-defined='yes'/>
    <elf-symbol name='_ZTINSt4__n18numpunctIwEE' size='12' type='object-type' binding='global-binding' visibility='default-visibility' is-defined='yes'/>
    <elf-symbol name='_ZTINSt4__n18time_getIcNS_19istreambuf_iteratorIcNS_11char_traitsIcEEEEEE' size='40' type='object-type' binding='weak-binding' visibility='default-visibility' is-defined='yes'/>
    <elf-symbol name='_ZTINSt4__n18time_getIwNS_19istreambuf_iteratorIwNS_11char_traitsIwEEEEEE' size='40' type='object-type' binding='weak-binding' visibility='default-visibility' is-defined='yes'/>
    <elf-symbol name='_ZTINSt4__n18time_putIcNS_19ostreambuf_iteratorIcNS_11char_traitsIcEEEEEE' size='32' type='object-type' binding='weak-binding' visibility='default-visibility' is-defined='yes'/>
    <elf-symbol name='_ZTINSt4__n18time_putIwNS_19ostreambuf_iteratorIwNS_11char_traitsIwEEEEEE' size='32' type='object-type' binding='weak-binding' visibility='default-visibility' is-defined='yes'/>
    <elf-symbol name='_ZTINSt4__n19__num_getIcEE' size='24' type='object-type' binding='weak-binding' visibility='default-visibility' is-defined='yes'/>
    <elf-symbol name='_ZTINSt4__n19__num_getIwEE' size='24' type='object-type' binding='weak-binding' visibility='default-visibility' is-defined='yes'/>
    <elf-symbol name='_ZTINSt4__n19__num_putIcEE' size='24' type='object-type' binding='weak-binding' visibility='default-visibility' is-defined='yes'/>
    <elf-symbol name='_ZTINSt4__n19__num_putIwEE' size='24' type='object-type' binding='weak-binding' visibility='default-visibility' is-defined='yes'/>
    <elf-symbol name='_ZTINSt4__n19basic_iosIcNS_11char_traitsIcEEEE' size='12' type='object-type' binding='weak-binding' visibility='default-visibility' is-defined='yes'/>
    <elf-symbol name='_ZTINSt4__n19basic_iosIwNS_11char_traitsIwEEEE' size='12' type='object-type' binding='weak-binding' visibility='default-visibility' is-defined='yes'/>
    <elf-symbol name='_ZTINSt4__n19money_getIcNS_19istreambuf_iteratorIcNS_11char_traitsIcEEEEEE' size='32' type='object-type' binding='weak-binding' visibility='default-visibility' is-defined='yes'/>
    <elf-symbol name='_ZTINSt4__n19money_getIwNS_19istreambuf_iteratorIwNS_11char_traitsIwEEEEEE' size='32' type='object-type' binding='weak-binding' visibility='default-visibility' is-defined='yes'/>
    <elf-symbol name='_ZTINSt4__n19money_putIcNS_19ostreambuf_iteratorIcNS_11char_traitsIcEEEEEE' size='32' type='object-type' binding='weak-binding' visibility='default-visibility' is-defined='yes'/>
    <elf-symbol name='_ZTINSt4__n19money_putIwNS_19ostreambuf_iteratorIwNS_11char_traitsIwEEEEEE' size='32' type='object-type' binding='weak-binding' visibility='default-visibility' is-defined='yes'/>
    <elf-symbol name='_ZTINSt4__n19strstreamE' size='12' type='object-type' binding='global-binding' visibility='default-visibility' is-defined='yes'/>
    <elf-symbol name='_ZTINSt4__n19time_baseE' size='8' type='object-type' binding='weak-binding' visibility='default-visibility' is-defined='yes'/>
    <elf-symbol name='_ZTIPDh' size='16' type='object-type' binding='global-binding' visibility='default-visibility' is-defined='yes'/>
    <elf-symbol name='_ZTIPDi' size='16' type='object-type' binding='global-binding' visibility='default-visibility' is-defined='yes'/>
    <elf-symbol name='_ZTIPDn' size='16' type='object-type' binding='global-binding' visibility='default-visibility' is-defined='yes'/>
    <elf-symbol name='_ZTIPDs' size='16' type='object-type' binding='global-binding' visibility='default-visibility' is-defined='yes'/>
    <elf-symbol name='_ZTIPDu' size='16' type='object-type' binding='global-binding' visibility='default-visibility' is-defined='yes'/>
    <elf-symbol name='_ZTIPKDh' size='16' type='object-type' binding='global-binding' visibility='default-visibility' is-defined='yes'/>
    <elf-symbol name='_ZTIPKDi' size='16' type='object-type' binding='global-binding' visibility='default-visibility' is-defined='yes'/>
    <elf-symbol name='_ZTIPKDn' size='16' type='object-type' binding='global-binding' visibility='default-visibility' is-defined='yes'/>
    <elf-symbol name='_ZTIPKDs' size='16' type='object-type' binding='global-binding' visibility='default-visibility' is-defined='yes'/>
    <elf-symbol name='_ZTIPKDu' size='16' type='object-type' binding='global-binding' visibility='default-visibility' is-defined='yes'/>
    <elf-symbol name='_ZTIPKa' size='16' type='object-type' binding='global-binding' visibility='default-visibility' is-defined='yes'/>
    <elf-symbol name='_ZTIPKb' size='16' type='object-type' binding='global-binding' visibility='default-visibility' is-defined='yes'/>
    <elf-symbol name='_ZTIPKc' size='16' type='object-type' binding='global-binding' visibility='default-visibility' is-defined='yes'/>
    <elf-symbol name='_ZTIPKd' size='16' type='object-type' binding='global-binding' visibility='default-visibility' is-defined='yes'/>
    <elf-symbol name='_ZTIPKe' size='16' type='object-type' binding='global-binding' visibility='default-visibility' is-defined='yes'/>
    <elf-symbol name='_ZTIPKf' size='16' type='object-type' binding='global-binding' visibility='default-visibility' is-defined='yes'/>
    <elf-symbol name='_ZTIPKg' size='16' type='object-type' binding='global-binding' visibility='default-visibility' is-defined='yes'/>
    <elf-symbol name='_ZTIPKh' size='16' type='object-type' binding='global-binding' visibility='default-visibility' is-defined='yes'/>
    <elf-symbol name='_ZTIPKi' size='16' type='object-type' binding='global-binding' visibility='default-visibility' is-defined='yes'/>
    <elf-symbol name='_ZTIPKj' size='16' type='object-type' binding='global-binding' visibility='default-visibility' is-defined='yes'/>
    <elf-symbol name='_ZTIPKl' size='16' type='object-type' binding='global-binding' visibility='default-visibility' is-defined='yes'/>
    <elf-symbol name='_ZTIPKm' size='16' type='object-type' binding='global-binding' visibility='default-visibility' is-defined='yes'/>
    <elf-symbol name='_ZTIPKn' size='16' type='object-type' binding='global-binding' visibility='default-visibility' is-defined='yes'/>
    <elf-symbol name='_ZTIPKo' size='16' type='object-type' binding='global-binding' visibility='default-visibility' is-defined='yes'/>
    <elf-symbol name='_ZTIPKs' size='16' type='object-type' binding='global-binding' visibility='default-visibility' is-defined='yes'/>
    <elf-symbol name='_ZTIPKt' size='16' type='object-type' binding='global-binding' visibility='default-visibility' is-defined='yes'/>
    <elf-symbol name='_ZTIPKv' size='16' type='object-type' binding='global-binding' visibility='default-visibility' is-defined='yes'/>
    <elf-symbol name='_ZTIPKw' size='16' type='object-type' binding='global-binding' visibility='default-visibility' is-defined='yes'/>
    <elf-symbol name='_ZTIPKx' size='16' type='object-type' binding='global-binding' visibility='default-visibility' is-defined='yes'/>
    <elf-symbol name='_ZTIPKy' size='16' type='object-type' binding='global-binding' visibility='default-visibility' is-defined='yes'/>
    <elf-symbol name='_ZTIPa' size='16' type='object-type' binding='global-binding' visibility='default-visibility' is-defined='yes'/>
    <elf-symbol name='_ZTIPb' size='16' type='object-type' binding='global-binding' visibility='default-visibility' is-defined='yes'/>
    <elf-symbol name='_ZTIPc' size='16' type='object-type' binding='global-binding' visibility='default-visibility' is-defined='yes'/>
    <elf-symbol name='_ZTIPd' size='16' type='object-type' binding='global-binding' visibility='default-visibility' is-defined='yes'/>
    <elf-symbol name='_ZTIPe' size='16' type='object-type' binding='global-binding' visibility='default-visibility' is-defined='yes'/>
    <elf-symbol name='_ZTIPf' size='16' type='object-type' binding='global-binding' visibility='default-visibility' is-defined='yes'/>
    <elf-symbol name='_ZTIPg' size='16' type='object-type' binding='global-binding' visibility='default-visibility' is-defined='yes'/>
    <elf-symbol name='_ZTIPh' size='16' type='object-type' binding='global-binding' visibility='default-visibility' is-defined='yes'/>
    <elf-symbol name='_ZTIPi' size='16' type='object-type' binding='global-binding' visibility='default-visibility' is-defined='yes'/>
    <elf-symbol name='_ZTIPj' size='16' type='object-type' binding='global-binding' visibility='default-visibility' is-defined='yes'/>
    <elf-symbol name='_ZTIPl' size='16' type='object-type' binding='global-binding' visibility='default-visibility' is-defined='yes'/>
    <elf-symbol name='_ZTIPm' size='16' type='object-type' binding='global-binding' visibility='default-visibility' is-defined='yes'/>
    <elf-symbol name='_ZTIPn' size='16' type='object-type' binding='global-binding' visibility='default-visibility' is-defined='yes'/>
    <elf-symbol name='_ZTIPo' size='16' type='object-type' binding='global-binding' visibility='default-visibility' is-defined='yes'/>
    <elf-symbol name='_ZTIPs' size='16' type='object-type' binding='global-binding' visibility='default-visibility' is-defined='yes'/>
    <elf-symbol name='_ZTIPt' size='16' type='object-type' binding='global-binding' visibility='default-visibility' is-defined='yes'/>
    <elf-symbol name='_ZTIPv' size='16' type='object-type' binding='global-binding' visibility='default-visibility' is-defined='yes'/>
    <elf-symbol name='_ZTIPw' size='16' type='object-type' binding='global-binding' visibility='default-visibility' is-defined='yes'/>
    <elf-symbol name='_ZTIPx' size='16' type='object-type' binding='global-binding' visibility='default-visibility' is-defined='yes'/>
    <elf-symbol name='_ZTIPy' size='16' type='object-type' binding='global-binding' visibility='default-visibility' is-defined='yes'/>
    <elf-symbol name='_ZTISt10bad_typeid' size='12' type='object-type' binding='global-binding' visibility='default-visibility' is-defined='yes'/>
    <elf-symbol name='_ZTISt11logic_error' size='12' type='object-type' binding='global-binding' visibility='default-visibility' is-defined='yes'/>
    <elf-symbol name='_ZTISt11range_error' size='12' type='object-type' binding='global-binding' visibility='default-visibility' is-defined='yes'/>
    <elf-symbol name='_ZTISt12bad_any_cast' size='12' type='object-type' binding='global-binding' visibility='default-visibility' is-defined='yes'/>
    <elf-symbol name='_ZTISt12domain_error' size='12' type='object-type' binding='global-binding' visibility='default-visibility' is-defined='yes'/>
    <elf-symbol name='_ZTISt12length_error' size='12' type='object-type' binding='global-binding' visibility='default-visibility' is-defined='yes'/>
    <elf-symbol name='_ZTISt12out_of_range' size='12' type='object-type' binding='global-binding' visibility='default-visibility' is-defined='yes'/>
    <elf-symbol name='_ZTISt13bad_exception' size='12' type='object-type' binding='global-binding' visibility='default-visibility' is-defined='yes'/>
    <elf-symbol name='_ZTISt13runtime_error' size='12' type='object-type' binding='global-binding' visibility='default-visibility' is-defined='yes'/>
    <elf-symbol name='_ZTISt14overflow_error' size='12' type='object-type' binding='global-binding' visibility='default-visibility' is-defined='yes'/>
    <elf-symbol name='_ZTISt15underflow_error' size='12' type='object-type' binding='global-binding' visibility='default-visibility' is-defined='yes'/>
    <elf-symbol name='_ZTISt16invalid_argument' size='12' type='object-type' binding='global-binding' visibility='default-visibility' is-defined='yes'/>
    <elf-symbol name='_ZTISt16nested_exception' size='8' type='object-type' binding='global-binding' visibility='default-visibility' is-defined='yes'/>
    <elf-symbol name='_ZTISt18bad_variant_access' size='12' type='object-type' binding='global-binding' visibility='default-visibility' is-defined='yes'/>
    <elf-symbol name='_ZTISt19bad_optional_access' size='12' type='object-type' binding='global-binding' visibility='default-visibility' is-defined='yes'/>
    <elf-symbol name='_ZTISt20bad_array_new_length' size='12' type='object-type' binding='global-binding' visibility='default-visibility' is-defined='yes'/>
    <elf-symbol name='_ZTISt8bad_cast' size='12' type='object-type' binding='global-binding' visibility='default-visibility' is-defined='yes'/>
    <elf-symbol name='_ZTISt9bad_alloc' size='12' type='object-type' binding='global-binding' visibility='default-visibility' is-defined='yes'/>
    <elf-symbol name='_ZTISt9exception' size='8' type='object-type' binding='global-binding' visibility='default-visibility' is-defined='yes'/>
    <elf-symbol name='_ZTISt9type_info' size='8' type='object-type' binding='global-binding' visibility='default-visibility' is-defined='yes'/>
    <elf-symbol name='_ZTIa' size='8' type='object-type' binding='global-binding' visibility='default-visibility' is-defined='yes'/>
    <elf-symbol name='_ZTIb' size='8' type='object-type' binding='global-binding' visibility='default-visibility' is-defined='yes'/>
    <elf-symbol name='_ZTIc' size='8' type='object-type' binding='global-binding' visibility='default-visibility' is-defined='yes'/>
    <elf-symbol name='_ZTId' size='8' type='object-type' binding='global-binding' visibility='default-visibility' is-defined='yes'/>
    <elf-symbol name='_ZTIe' size='8' type='object-type' binding='global-binding' visibility='default-visibility' is-defined='yes'/>
    <elf-symbol name='_ZTIf' size='8' type='object-type' binding='global-binding' visibility='default-visibility' is-defined='yes'/>
    <elf-symbol name='_ZTIg' size='8' type='object-type' binding='global-binding' visibility='default-visibility' is-defined='yes'/>
    <elf-symbol name='_ZTIh' size='8' type='object-type' binding='global-binding' visibility='default-visibility' is-defined='yes'/>
    <elf-symbol name='_ZTIi' size='8' type='object-type' binding='global-binding' visibility='default-visibility' is-defined='yes'/>
    <elf-symbol name='_ZTIj' size='8' type='object-type' binding='global-binding' visibility='default-visibility' is-defined='yes'/>
    <elf-symbol name='_ZTIl' size='8' type='object-type' binding='global-binding' visibility='default-visibility' is-defined='yes'/>
    <elf-symbol name='_ZTIm' size='8' type='object-type' binding='global-binding' visibility='default-visibility' is-defined='yes'/>
    <elf-symbol name='_ZTIn' size='8' type='object-type' binding='global-binding' visibility='default-visibility' is-defined='yes'/>
    <elf-symbol name='_ZTIo' size='8' type='object-type' binding='global-binding' visibility='default-visibility' is-defined='yes'/>
    <elf-symbol name='_ZTIs' size='8' type='object-type' binding='global-binding' visibility='default-visibility' is-defined='yes'/>
    <elf-symbol name='_ZTIt' size='8' type='object-type' binding='global-binding' visibility='default-visibility' is-defined='yes'/>
    <elf-symbol name='_ZTIv' size='8' type='object-type' binding='global-binding' visibility='default-visibility' is-defined='yes'/>
    <elf-symbol name='_ZTIw' size='8' type='object-type' binding='global-binding' visibility='default-visibility' is-defined='yes'/>
    <elf-symbol name='_ZTIx' size='8' type='object-type' binding='global-binding' visibility='default-visibility' is-defined='yes'/>
    <elf-symbol name='_ZTIy' size='8' type='object-type' binding='global-binding' visibility='default-visibility' is-defined='yes'/>
    <elf-symbol name='_ZTSDh' size='3' type='object-type' binding='global-binding' visibility='default-visibility' is-defined='yes'/>
    <elf-symbol name='_ZTSDi' size='3' type='object-type' binding='global-binding' visibility='default-visibility' is-defined='yes'/>
    <elf-symbol name='_ZTSDn' size='3' type='object-type' binding='global-binding' visibility='default-visibility' is-defined='yes'/>
    <elf-symbol name='_ZTSDs' size='3' type='object-type' binding='global-binding' visibility='default-visibility' is-defined='yes'/>
    <elf-symbol name='_ZTSDu' size='3' type='object-type' binding='global-binding' visibility='default-visibility' is-defined='yes'/>
    <elf-symbol name='_ZTSN10__cxxabiv116__enum_type_infoE' size='33' type='object-type' binding='global-binding' visibility='default-visibility' is-defined='yes'/>
    <elf-symbol name='_ZTSN10__cxxabiv116__shim_type_infoE' size='33' type='object-type' binding='global-binding' visibility='default-visibility' is-defined='yes'/>
    <elf-symbol name='_ZTSN10__cxxabiv117__array_type_infoE' size='34' type='object-type' binding='global-binding' visibility='default-visibility' is-defined='yes'/>
    <elf-symbol name='_ZTSN10__cxxabiv117__class_type_infoE' size='34' type='object-type' binding='global-binding' visibility='default-visibility' is-defined='yes'/>
    <elf-symbol name='_ZTSN10__cxxabiv117__pbase_type_infoE' size='34' type='object-type' binding='global-binding' visibility='default-visibility' is-defined='yes'/>
    <elf-symbol name='_ZTSN10__cxxabiv119__pointer_type_infoE' size='36' type='object-type' binding='global-binding' visibility='default-visibility' is-defined='yes'/>
    <elf-symbol name='_ZTSN10__cxxabiv120__function_type_infoE' size='37' type='object-type' binding='global-binding' visibility='default-visibility' is-defined='yes'/>
    <elf-symbol name='_ZTSN10__cxxabiv120__si_class_type_infoE' size='37' type='object-type' binding='global-binding' visibility='default-visibility' is-defined='yes'/>
    <elf-symbol name='_ZTSN10__cxxabiv121__vmi_class_type_infoE' size='38' type='object-type' binding='global-binding' visibility='default-visibility' is-defined='yes'/>
    <elf-symbol name='_ZTSN10__cxxabiv123__fundamental_type_infoE' size='40' type='object-type' binding='global-binding' visibility='default-visibility' is-defined='yes'/>
    <elf-symbol name='_ZTSN10__cxxabiv129__pointer_to_member_type_infoE' size='46' type='object-type' binding='global-binding' visibility='default-visibility' is-defined='yes'/>
    <elf-symbol name='_ZTSNSt12experimental15fundamentals_v112bad_any_castE' size='50' type='object-type' binding='global-binding' visibility='default-visibility' is-defined='yes'/>
    <elf-symbol name='_ZTSNSt12experimental19bad_optional_accessE' size='40' type='object-type' binding='global-binding' visibility='default-visibility' is-defined='yes'/>
    <elf-symbol name='_ZTSNSt4__n110__time_getE' size='22' type='object-type' binding='weak-binding' visibility='default-visibility' is-defined='yes'/>
    <elf-symbol name='_ZTSNSt4__n110__time_putE' size='22' type='object-type' binding='weak-binding' visibility='default-visibility' is-defined='yes'/>
    <elf-symbol name='_ZTSNSt4__n110ctype_baseE' size='22' type='object-type' binding='weak-binding' visibility='default-visibility' is-defined='yes'/>
    <elf-symbol name='_ZTSNSt4__n110istrstreamE' size='22' type='object-type' binding='global-binding' visibility='default-visibility' is-defined='yes'/>
    <elf-symbol name='_ZTSNSt4__n110money_baseE' size='22' type='object-type' binding='weak-binding' visibility='default-visibility' is-defined='yes'/>
    <elf-symbol name='_ZTSNSt4__n110moneypunctIcLb0EEE' size='29' type='object-type' binding='weak-binding' visibility='default-visibility' is-defined='yes'/>
    <elf-symbol name='_ZTSNSt4__n110moneypunctIcLb1EEE' size='29' type='object-type' binding='weak-binding' visibility='default-visibility' is-defined='yes'/>
    <elf-symbol name='_ZTSNSt4__n110moneypunctIwLb0EEE' size='29' type='object-type' binding='weak-binding' visibility='default-visibility' is-defined='yes'/>
    <elf-symbol name='_ZTSNSt4__n110moneypunctIwLb1EEE' size='29' type='object-type' binding='weak-binding' visibility='default-visibility' is-defined='yes'/>
    <elf-symbol name='_ZTSNSt4__n110ostrstreamE' size='22' type='object-type' binding='global-binding' visibility='default-visibility' is-defined='yes'/>
    <elf-symbol name='_ZTSNSt4__n111__money_getIcEE' size='26' type='object-type' binding='weak-binding' visibility='default-visibility' is-defined='yes'/>
    <elf-symbol name='_ZTSNSt4__n111__money_getIwEE' size='26' type='object-type' binding='weak-binding' visibility='default-visibility' is-defined='yes'/>
    <elf-symbol name='_ZTSNSt4__n111__money_putIcEE' size='26' type='object-type' binding='weak-binding' visibility='default-visibility' is-defined='yes'/>
    <elf-symbol name='_ZTSNSt4__n111__money_putIwEE' size='26' type='object-type' binding='weak-binding' visibility='default-visibility' is-defined='yes'/>
    <elf-symbol name='_ZTSNSt4__n111regex_errorE' size='23' type='object-type' binding='global-binding' visibility='default-visibility' is-defined='yes'/>
    <elf-symbol name='_ZTSNSt4__n112bad_weak_ptrE' size='24' type='object-type' binding='global-binding' visibility='default-visibility' is-defined='yes'/>
    <elf-symbol name='_ZTSNSt4__n112codecvt_baseE' size='24' type='object-type' binding='weak-binding' visibility='default-visibility' is-defined='yes'/>
    <elf-symbol name='_ZTSNSt4__n112ctype_bynameIcEE' size='27' type='object-type' binding='global-binding' visibility='default-visibility' is-defined='yes'/>
    <elf-symbol name='_ZTSNSt4__n112ctype_bynameIwEE' size='27' type='object-type' binding='global-binding' visibility='default-visibility' is-defined='yes'/>
    <elf-symbol name='_ZTSNSt4__n112future_errorE' size='24' type='object-type' binding='global-binding' visibility='default-visibility' is-defined='yes'/>
    <elf-symbol name='_ZTSNSt4__n112strstreambufE' size='24' type='object-type' binding='global-binding' visibility='default-visibility' is-defined='yes'/>
    <elf-symbol name='_ZTSNSt4__n112system_errorE' size='24' type='object-type' binding='global-binding' visibility='default-visibility' is-defined='yes'/>
    <elf-symbol name='_ZTSNSt4__n113basic_filebufIcNS_11char_traitsIcEEEE' size='48' type='object-type' binding='weak-binding' visibility='default-visibility' is-defined='yes'/>
    <elf-symbol name='_ZTSNSt4__n113basic_istreamIcNS_11char_traitsIcEEEE' size='48' type='object-type' binding='weak-binding' visibility='default-visibility' is-defined='yes'/>
    <elf-symbol name='_ZTSNSt4__n113basic_istreamIwNS_11char_traitsIwEEEE' size='48' type='object-type' binding='weak-binding' visibility='default-visibility' is-defined='yes'/>
    <elf-symbol name='_ZTSNSt4__n113basic_ostreamIcNS_11char_traitsIcEEEE' size='48' type='object-type' binding='weak-binding' visibility='default-visibility' is-defined='yes'/>
    <elf-symbol name='_ZTSNSt4__n113basic_ostreamIwNS_11char_traitsIwEEEE' size='48' type='object-type' binding='weak-binding' visibility='default-visibility' is-defined='yes'/>
    <elf-symbol name='_ZTSNSt4__n113messages_baseE' size='25' type='object-type' binding='weak-binding' visibility='default-visibility' is-defined='yes'/>
    <elf-symbol name='_ZTSNSt4__n114__codecvt_utf8IDiEE' size='30' type='object-type' binding='global-binding' visibility='default-visibility' is-defined='yes'/>
    <elf-symbol name='_ZTSNSt4__n114__codecvt_utf8IDsEE' size='30' type='object-type' binding='global-binding' visibility='default-visibility' is-defined='yes'/>
    <elf-symbol name='_ZTSNSt4__n114__codecvt_utf8IwEE' size='29' type='object-type' binding='global-binding' visibility='default-visibility' is-defined='yes'/>
    <elf-symbol name='_ZTSNSt4__n114__num_get_baseE' size='26' type='object-type' binding='weak-binding' visibility='default-visibility' is-defined='yes'/>
    <elf-symbol name='_ZTSNSt4__n114__num_put_baseE' size='26' type='object-type' binding='weak-binding' visibility='default-visibility' is-defined='yes'/>
    <elf-symbol name='_ZTSNSt4__n114__shared_countE' size='26' type='object-type' binding='global-binding' visibility='default-visibility' is-defined='yes'/>
    <elf-symbol name='_ZTSNSt4__n114basic_ifstreamIcNS_11char_traitsIcEEEE' size='49' type='object-type' binding='weak-binding' visibility='default-visibility' is-defined='yes'/>
    <elf-symbol name='_ZTSNSt4__n114basic_iostreamIcNS_11char_traitsIcEEEE' size='49' type='object-type' binding='weak-binding' visibility='default-visibility' is-defined='yes'/>
    <elf-symbol name='_ZTSNSt4__n114basic_ofstreamIcNS_11char_traitsIcEEEE' size='49' type='object-type' binding='weak-binding' visibility='default-visibility' is-defined='yes'/>
    <elf-symbol name='_ZTSNSt4__n114codecvt_bynameIDiDu11__mbstate_tEE' size='45' type='object-type' binding='weak-binding' visibility='default-visibility' is-defined='yes'/>
    <elf-symbol name='_ZTSNSt4__n114codecvt_bynameIDic11__mbstate_tEE' size='44' type='object-type' binding='weak-binding' visibility='default-visibility' is-defined='yes'/>
    <elf-symbol name='_ZTSNSt4__n114codecvt_bynameIDsDu11__mbstate_tEE' size='45' type='object-type' binding='weak-binding' visibility='default-visibility' is-defined='yes'/>
    <elf-symbol name='_ZTSNSt4__n114codecvt_bynameIDsc11__mbstate_tEE' size='44' type='object-type' binding='weak-binding' visibility='default-visibility' is-defined='yes'/>
    <elf-symbol name='_ZTSNSt4__n114codecvt_bynameIcc11__mbstate_tEE' size='43' type='object-type' binding='weak-binding' visibility='default-visibility' is-defined='yes'/>
    <elf-symbol name='_ZTSNSt4__n114codecvt_bynameIwc11__mbstate_tEE' size='43' type='object-type' binding='weak-binding' visibility='default-visibility' is-defined='yes'/>
    <elf-symbol name='_ZTSNSt4__n114collate_bynameIcEE' size='29' type='object-type' binding='global-binding' visibility='default-visibility' is-defined='yes'/>
    <elf-symbol name='_ZTSNSt4__n114collate_bynameIwEE' size='29' type='object-type' binding='global-binding' visibility='default-visibility' is-defined='yes'/>
    <elf-symbol name='_ZTSNSt4__n114error_categoryE' size='26' type='object-type' binding='global-binding' visibility='default-visibility' is-defined='yes'/>
    <elf-symbol name='_ZTSNSt4__n115__codecvt_utf16IDiLb0EEE' size='35' type='object-type' binding='global-binding' visibility='default-visibility' is-defined='yes'/>
    <elf-symbol name='_ZTSNSt4__n115__codecvt_utf16IDiLb1EEE' size='35' type='object-type' binding='global-binding' visibility='default-visibility' is-defined='yes'/>
    <elf-symbol name='_ZTSNSt4__n115__codecvt_utf16IDsLb0EEE' size='35' type='object-type' binding='global-binding' visibility='default-visibility' is-defined='yes'/>
    <elf-symbol name='_ZTSNSt4__n115__codecvt_utf16IDsLb1EEE' size='35' type='object-type' binding='global-binding' visibility='default-visibility' is-defined='yes'/>
    <elf-symbol name='_ZTSNSt4__n115__codecvt_utf16IwLb0EEE' size='34' type='object-type' binding='global-binding' visibility='default-visibility' is-defined='yes'/>
    <elf-symbol name='_ZTSNSt4__n115__codecvt_utf16IwLb1EEE' size='34' type='object-type' binding='global-binding' visibility='default-visibility' is-defined='yes'/>
    <elf-symbol name='_ZTSNSt4__n115basic_streambufIcNS_11char_traitsIcEEEE' size='50' type='object-type' binding='weak-binding' visibility='default-visibility' is-defined='yes'/>
    <elf-symbol name='_ZTSNSt4__n115basic_streambufIwNS_11char_traitsIwEEEE' size='50' type='object-type' binding='weak-binding' visibility='default-visibility' is-defined='yes'/>
    <elf-symbol name='_ZTSNSt4__n115basic_stringbufIcNS_11char_traitsIcEENS_9allocatorIcEEEE' size='67' type='object-type' binding='weak-binding' visibility='default-visibility' is-defined='yes'/>
    <elf-symbol name='_ZTSNSt4__n115messages_bynameIcEE' size='30' type='object-type' binding='weak-binding' visibility='default-visibility' is-defined='yes'/>
    <elf-symbol name='_ZTSNSt4__n115messages_bynameIwEE' size='30' type='object-type' binding='weak-binding' visibility='default-visibility' is-defined='yes'/>
    <elf-symbol name='_ZTSNSt4__n115numpunct_bynameIcEE' size='30' type='object-type' binding='global-binding' visibility='default-visibility' is-defined='yes'/>
    <elf-symbol name='_ZTSNSt4__n115numpunct_bynameIwEE' size='30' type='object-type' binding='global-binding' visibility='default-visibility' is-defined='yes'/>
    <elf-symbol name='_ZTSNSt4__n115time_get_bynameIcNS_19istreambuf_iteratorIcNS_11char_traitsIcEEEEEE' size='78' type='object-type' binding='weak-binding' visibility='default-visibility' is-defined='yes'/>
    <elf-symbol name='_ZTSNSt4__n115time_get_bynameIwNS_19istreambuf_iteratorIwNS_11char_traitsIwEEEEEE' size='78' type='object-type' binding='weak-binding' visibility='default-visibility' is-defined='yes'/>
    <elf-symbol name='_ZTSNSt4__n115time_put_bynameIcNS_19ostreambuf_iteratorIcNS_11char_traitsIcEEEEEE' size='78' type='object-type' binding='weak-binding' visibility='default-visibility' is-defined='yes'/>
    <elf-symbol name='_ZTSNSt4__n115time_put_bynameIwNS_19ostreambuf_iteratorIwNS_11char_traitsIwEEEEEE' size='78' type='object-type' binding='weak-binding' visibility='default-visibility' is-defined='yes'/>
    <elf-symbol name='_ZTSNSt4__n116__narrow_to_utf8ILj16EEE' size='35' type='object-type' binding='global-binding' visibility='default-visibility' is-defined='yes'/>
    <elf-symbol name='_ZTSNSt4__n116__narrow_to_utf8ILj32EEE' size='35' type='object-type' binding='global-binding' visibility='default-visibility' is-defined='yes'/>
    <elf-symbol name='_ZTSNSt4__n117__assoc_sub_stateE' size='29' type='object-type' binding='global-binding' visibility='default-visibility' is-defined='yes'/>
    <elf-symbol name='_ZTSNSt4__n117__widen_from_utf8ILj16EEE' size='36' type='object-type' binding='global-binding' visibility='default-visibility' is-defined='yes'/>
    <elf-symbol name='_ZTSNSt4__n117__widen_from_utf8ILj32EEE' size='36' type='object-type' binding='global-binding' visibility='default-visibility' is-defined='yes'/>
    <elf-symbol name='_ZTSNSt4__n117bad_function_callE' size='29' type='object-type' binding='global-binding' visibility='default-visibility' is-defined='yes'/>
    <elf-symbol name='_ZTSNSt4__n117moneypunct_bynameIcLb0EEE' size='36' type='object-type' binding='weak-binding' visibility='default-visibility' is-defined='yes'/>
    <elf-symbol name='_ZTSNSt4__n117moneypunct_bynameIcLb1EEE' size='36' type='object-type' binding='weak-binding' visibility='default-visibility' is-defined='yes'/>
    <elf-symbol name='_ZTSNSt4__n117moneypunct_bynameIwLb0EEE' size='36' type='object-type' binding='weak-binding' visibility='default-visibility' is-defined='yes'/>
    <elf-symbol name='_ZTSNSt4__n117moneypunct_bynameIwLb1EEE' size='36' type='object-type' binding='weak-binding' visibility='default-visibility' is-defined='yes'/>
    <elf-symbol name='_ZTSNSt4__n118__time_get_storageIcEE' size='33' type='object-type' binding='weak-binding' visibility='default-visibility' is-defined='yes'/>
    <elf-symbol name='_ZTSNSt4__n118__time_get_storageIwEE' size='33' type='object-type' binding='weak-binding' visibility='default-visibility' is-defined='yes'/>
    <elf-symbol name='_ZTSNSt4__n118basic_stringstreamIcNS_11char_traitsIcEENS_9allocatorIcEEEE' size='70' type='object-type' binding='weak-binding' visibility='default-visibility' is-defined='yes'/>
    <elf-symbol name='_ZTSNSt4__n119__shared_weak_countE' size='31' type='object-type' binding='global-binding' visibility='default-visibility' is-defined='yes'/>
    <elf-symbol name='_ZTSNSt4__n119basic_istringstreamIcNS_11char_traitsIcEENS_9allocatorIcEEEE' size='71' type='object-type' binding='weak-binding' visibility='default-visibility' is-defined='yes'/>
    <elf-symbol name='_ZTSNSt4__n119basic_ostringstreamIcNS_11char_traitsIcEENS_9allocatorIcEEEE' size='71' type='object-type' binding='weak-binding' visibility='default-visibility' is-defined='yes'/>
    <elf-symbol name='_ZTSNSt4__n120__codecvt_utf8_utf16IDiEE' size='36' type='object-type' binding='global-binding' visibility='default-visibility' is-defined='yes'/>
    <elf-symbol name='_ZTSNSt4__n120__codecvt_utf8_utf16IDsEE' size='36' type='object-type' binding='global-binding' visibility='default-visibility' is-defined='yes'/>
    <elf-symbol name='_ZTSNSt4__n120__codecvt_utf8_utf16IwEE' size='35' type='object-type' binding='global-binding' visibility='default-visibility' is-defined='yes'/>
    <elf-symbol name='_ZTSNSt4__n120__time_get_c_storageIcEE' size='35' type='object-type' binding='weak-binding' visibility='default-visibility' is-defined='yes'/>
    <elf-symbol name='_ZTSNSt4__n120__time_get_c_storageIwEE' size='35' type='object-type' binding='weak-binding' visibility='default-visibility' is-defined='yes'/>
    <elf-symbol name='_ZTSNSt4__n14__fs10filesystem16filesystem_errorE' size='45' type='object-type' binding='global-binding' visibility='default-visibility' is-defined='yes'/>
    <elf-symbol name='_ZTSNSt4__n15ctypeIcEE' size='19' type='object-type' binding='global-binding' visibility='default-visibility' is-defined='yes'/>
    <elf-symbol name='_ZTSNSt4__n15ctypeIwEE' size='19' type='object-type' binding='global-binding' visibility='default-visibility' is-defined='yes'/>
    <elf-symbol name='_ZTSNSt4__n16locale5facetE' size='23' type='object-type' binding='global-binding' visibility='default-visibility' is-defined='yes'/>
    <elf-symbol name='_ZTSNSt4__n17codecvtIDiDu11__mbstate_tEE' size='37' type='object-type' binding='global-binding' visibility='default-visibility' is-defined='yes'/>
    <elf-symbol name='_ZTSNSt4__n17codecvtIDic11__mbstate_tEE' size='36' type='object-type' binding='global-binding' visibility='default-visibility' is-defined='yes'/>
    <elf-symbol name='_ZTSNSt4__n17codecvtIDsDu11__mbstate_tEE' size='37' type='object-type' binding='global-binding' visibility='default-visibility' is-defined='yes'/>
    <elf-symbol name='_ZTSNSt4__n17codecvtIDsc11__mbstate_tEE' size='36' type='object-type' binding='global-binding' visibility='default-visibility' is-defined='yes'/>
    <elf-symbol name='_ZTSNSt4__n17codecvtIcc11__mbstate_tEE' size='35' type='object-type' binding='global-binding' visibility='default-visibility' is-defined='yes'/>
    <elf-symbol name='_ZTSNSt4__n17codecvtIwc11__mbstate_tEE' size='35' type='object-type' binding='global-binding' visibility='default-visibility' is-defined='yes'/>
    <elf-symbol name='_ZTSNSt4__n17collateIcEE' size='21' type='object-type' binding='weak-binding' visibility='default-visibility' is-defined='yes'/>
    <elf-symbol name='_ZTSNSt4__n17collateIwEE' size='21' type='object-type' binding='weak-binding' visibility='default-visibility' is-defined='yes'/>
    <elf-symbol name='_ZTSNSt4__n17num_getIcNS_19istreambuf_iteratorIcNS_11char_traitsIcEEEEEE' size='69' type='object-type' binding='weak-binding' visibility='default-visibility' is-defined='yes'/>
    <elf-symbol name='_ZTSNSt4__n17num_getIwNS_19istreambuf_iteratorIwNS_11char_traitsIwEEEEEE' size='69' type='object-type' binding='weak-binding' visibility='default-visibility' is-defined='yes'/>
    <elf-symbol name='_ZTSNSt4__n17num_putIcNS_19ostreambuf_iteratorIcNS_11char_traitsIcEEEEEE' size='69' type='object-type' binding='weak-binding' visibility='default-visibility' is-defined='yes'/>
    <elf-symbol name='_ZTSNSt4__n17num_putIwNS_19ostreambuf_iteratorIwNS_11char_traitsIwEEEEEE' size='69' type='object-type' binding='weak-binding' visibility='default-visibility' is-defined='yes'/>
    <elf-symbol name='_ZTSNSt4__n18ios_base7failureE' size='27' type='object-type' binding='global-binding' visibility='default-visibility' is-defined='yes'/>
    <elf-symbol name='_ZTSNSt4__n18ios_baseE' size='19' type='object-type' binding='global-binding' visibility='default-visibility' is-defined='yes'/>
    <elf-symbol name='_ZTSNSt4__n18messagesIcEE' size='22' type='object-type' binding='weak-binding' visibility='default-visibility' is-defined='yes'/>
    <elf-symbol name='_ZTSNSt4__n18messagesIwEE' size='22' type='object-type' binding='weak-binding' visibility='default-visibility' is-defined='yes'/>
    <elf-symbol name='_ZTSNSt4__n18numpunctIcEE' size='22' type='object-type' binding='global-binding' visibility='default-visibility' is-defined='yes'/>
    <elf-symbol name='_ZTSNSt4__n18numpunctIwEE' size='22' type='object-type' binding='global-binding' visibility='default-visibility' is-defined='yes'/>
    <elf-symbol name='_ZTSNSt4__n18time_getIcNS_19istreambuf_iteratorIcNS_11char_traitsIcEEEEEE' size='70' type='object-type' binding='weak-binding' visibility='default-visibility' is-defined='yes'/>
    <elf-symbol name='_ZTSNSt4__n18time_getIwNS_19istreambuf_iteratorIwNS_11char_traitsIwEEEEEE' size='70' type='object-type' binding='weak-binding' visibility='default-visibility' is-defined='yes'/>
    <elf-symbol name='_ZTSNSt4__n18time_putIcNS_19ostreambuf_iteratorIcNS_11char_traitsIcEEEEEE' size='70' type='object-type' binding='weak-binding' visibility='default-visibility' is-defined='yes'/>
    <elf-symbol name='_ZTSNSt4__n18time_putIwNS_19ostreambuf_iteratorIwNS_11char_traitsIwEEEEEE' size='70' type='object-type' binding='weak-binding' visibility='default-visibility' is-defined='yes'/>
    <elf-symbol name='_ZTSNSt4__n19__num_getIcEE' size='23' type='object-type' binding='weak-binding' visibility='default-visibility' is-defined='yes'/>
    <elf-symbol name='_ZTSNSt4__n19__num_getIwEE' size='23' type='object-type' binding='weak-binding' visibility='default-visibility' is-defined='yes'/>
    <elf-symbol name='_ZTSNSt4__n19__num_putIcEE' size='23' type='object-type' binding='weak-binding' visibility='default-visibility' is-defined='yes'/>
    <elf-symbol name='_ZTSNSt4__n19__num_putIwEE' size='23' type='object-type' binding='weak-binding' visibility='default-visibility' is-defined='yes'/>
    <elf-symbol name='_ZTSNSt4__n19basic_iosIcNS_11char_traitsIcEEEE' size='43' type='object-type' binding='weak-binding' visibility='default-visibility' is-defined='yes'/>
    <elf-symbol name='_ZTSNSt4__n19basic_iosIwNS_11char_traitsIwEEEE' size='43' type='object-type' binding='weak-binding' visibility='default-visibility' is-defined='yes'/>
    <elf-symbol name='_ZTSNSt4__n19money_getIcNS_19istreambuf_iteratorIcNS_11char_traitsIcEEEEEE' size='71' type='object-type' binding='weak-binding' visibility='default-visibility' is-defined='yes'/>
    <elf-symbol name='_ZTSNSt4__n19money_getIwNS_19istreambuf_iteratorIwNS_11char_traitsIwEEEEEE' size='71' type='object-type' binding='weak-binding' visibility='default-visibility' is-defined='yes'/>
    <elf-symbol name='_ZTSNSt4__n19money_putIcNS_19ostreambuf_iteratorIcNS_11char_traitsIcEEEEEE' size='71' type='object-type' binding='weak-binding' visibility='default-visibility' is-defined='yes'/>
    <elf-symbol name='_ZTSNSt4__n19money_putIwNS_19ostreambuf_iteratorIwNS_11char_traitsIwEEEEEE' size='71' type='object-type' binding='weak-binding' visibility='default-visibility' is-defined='yes'/>
    <elf-symbol name='_ZTSNSt4__n19strstreamE' size='20' type='object-type' binding='global-binding' visibility='default-visibility' is-defined='yes'/>
    <elf-symbol name='_ZTSNSt4__n19time_baseE' size='20' type='object-type' binding='weak-binding' visibility='default-visibility' is-defined='yes'/>
    <elf-symbol name='_ZTSPDh' size='4' type='object-type' binding='global-binding' visibility='default-visibility' is-defined='yes'/>
    <elf-symbol name='_ZTSPDi' size='4' type='object-type' binding='global-binding' visibility='default-visibility' is-defined='yes'/>
    <elf-symbol name='_ZTSPDn' size='4' type='object-type' binding='global-binding' visibility='default-visibility' is-defined='yes'/>
    <elf-symbol name='_ZTSPDs' size='4' type='object-type' binding='global-binding' visibility='default-visibility' is-defined='yes'/>
    <elf-symbol name='_ZTSPDu' size='4' type='object-type' binding='global-binding' visibility='default-visibility' is-defined='yes'/>
    <elf-symbol name='_ZTSPKDh' size='5' type='object-type' binding='global-binding' visibility='default-visibility' is-defined='yes'/>
    <elf-symbol name='_ZTSPKDi' size='5' type='object-type' binding='global-binding' visibility='default-visibility' is-defined='yes'/>
    <elf-symbol name='_ZTSPKDn' size='5' type='object-type' binding='global-binding' visibility='default-visibility' is-defined='yes'/>
    <elf-symbol name='_ZTSPKDs' size='5' type='object-type' binding='global-binding' visibility='default-visibility' is-defined='yes'/>
    <elf-symbol name='_ZTSPKDu' size='5' type='object-type' binding='global-binding' visibility='default-visibility' is-defined='yes'/>
    <elf-symbol name='_ZTSPKa' size='4' type='object-type' binding='global-binding' visibility='default-visibility' is-defined='yes'/>
    <elf-symbol name='_ZTSPKb' size='4' type='object-type' binding='global-binding' visibility='default-visibility' is-defined='yes'/>
    <elf-symbol name='_ZTSPKc' size='4' type='object-type' binding='global-binding' visibility='default-visibility' is-defined='yes'/>
    <elf-symbol name='_ZTSPKd' size='4' type='object-type' binding='global-binding' visibility='default-visibility' is-defined='yes'/>
    <elf-symbol name='_ZTSPKe' size='4' type='object-type' binding='global-binding' visibility='default-visibility' is-defined='yes'/>
    <elf-symbol name='_ZTSPKf' size='4' type='object-type' binding='global-binding' visibility='default-visibility' is-defined='yes'/>
    <elf-symbol name='_ZTSPKg' size='4' type='object-type' binding='global-binding' visibility='default-visibility' is-defined='yes'/>
    <elf-symbol name='_ZTSPKh' size='4' type='object-type' binding='global-binding' visibility='default-visibility' is-defined='yes'/>
    <elf-symbol name='_ZTSPKi' size='4' type='object-type' binding='global-binding' visibility='default-visibility' is-defined='yes'/>
    <elf-symbol name='_ZTSPKj' size='4' type='object-type' binding='global-binding' visibility='default-visibility' is-defined='yes'/>
    <elf-symbol name='_ZTSPKl' size='4' type='object-type' binding='global-binding' visibility='default-visibility' is-defined='yes'/>
    <elf-symbol name='_ZTSPKm' size='4' type='object-type' binding='global-binding' visibility='default-visibility' is-defined='yes'/>
    <elf-symbol name='_ZTSPKn' size='4' type='object-type' binding='global-binding' visibility='default-visibility' is-defined='yes'/>
    <elf-symbol name='_ZTSPKo' size='4' type='object-type' binding='global-binding' visibility='default-visibility' is-defined='yes'/>
    <elf-symbol name='_ZTSPKs' size='4' type='object-type' binding='global-binding' visibility='default-visibility' is-defined='yes'/>
    <elf-symbol name='_ZTSPKt' size='4' type='object-type' binding='global-binding' visibility='default-visibility' is-defined='yes'/>
    <elf-symbol name='_ZTSPKv' size='4' type='object-type' binding='global-binding' visibility='default-visibility' is-defined='yes'/>
    <elf-symbol name='_ZTSPKw' size='4' type='object-type' binding='global-binding' visibility='default-visibility' is-defined='yes'/>
    <elf-symbol name='_ZTSPKx' size='4' type='object-type' binding='global-binding' visibility='default-visibility' is-defined='yes'/>
    <elf-symbol name='_ZTSPKy' size='4' type='object-type' binding='global-binding' visibility='default-visibility' is-defined='yes'/>
    <elf-symbol name='_ZTSPa' size='3' type='object-type' binding='global-binding' visibility='default-visibility' is-defined='yes'/>
    <elf-symbol name='_ZTSPb' size='3' type='object-type' binding='global-binding' visibility='default-visibility' is-defined='yes'/>
    <elf-symbol name='_ZTSPc' size='3' type='object-type' binding='global-binding' visibility='default-visibility' is-defined='yes'/>
    <elf-symbol name='_ZTSPd' size='3' type='object-type' binding='global-binding' visibility='default-visibility' is-defined='yes'/>
    <elf-symbol name='_ZTSPe' size='3' type='object-type' binding='global-binding' visibility='default-visibility' is-defined='yes'/>
    <elf-symbol name='_ZTSPf' size='3' type='object-type' binding='global-binding' visibility='default-visibility' is-defined='yes'/>
    <elf-symbol name='_ZTSPg' size='3' type='object-type' binding='global-binding' visibility='default-visibility' is-defined='yes'/>
    <elf-symbol name='_ZTSPh' size='3' type='object-type' binding='global-binding' visibility='default-visibility' is-defined='yes'/>
    <elf-symbol name='_ZTSPi' size='3' type='object-type' binding='global-binding' visibility='default-visibility' is-defined='yes'/>
    <elf-symbol name='_ZTSPj' size='3' type='object-type' binding='global-binding' visibility='default-visibility' is-defined='yes'/>
    <elf-symbol name='_ZTSPl' size='3' type='object-type' binding='global-binding' visibility='default-visibility' is-defined='yes'/>
    <elf-symbol name='_ZTSPm' size='3' type='object-type' binding='global-binding' visibility='default-visibility' is-defined='yes'/>
    <elf-symbol name='_ZTSPn' size='3' type='object-type' binding='global-binding' visibility='default-visibility' is-defined='yes'/>
    <elf-symbol name='_ZTSPo' size='3' type='object-type' binding='global-binding' visibility='default-visibility' is-defined='yes'/>
    <elf-symbol name='_ZTSPs' size='3' type='object-type' binding='global-binding' visibility='default-visibility' is-defined='yes'/>
    <elf-symbol name='_ZTSPt' size='3' type='object-type' binding='global-binding' visibility='default-visibility' is-defined='yes'/>
    <elf-symbol name='_ZTSPv' size='3' type='object-type' binding='global-binding' visibility='default-visibility' is-defined='yes'/>
    <elf-symbol name='_ZTSPw' size='3' type='object-type' binding='global-binding' visibility='default-visibility' is-defined='yes'/>
    <elf-symbol name='_ZTSPx' size='3' type='object-type' binding='global-binding' visibility='default-visibility' is-defined='yes'/>
    <elf-symbol name='_ZTSPy' size='3' type='object-type' binding='global-binding' visibility='default-visibility' is-defined='yes'/>
    <elf-symbol name='_ZTSSt10bad_typeid' size='15' type='object-type' binding='global-binding' visibility='default-visibility' is-defined='yes'/>
    <elf-symbol name='_ZTSSt11logic_error' size='16' type='object-type' binding='global-binding' visibility='default-visibility' is-defined='yes'/>
    <elf-symbol name='_ZTSSt11range_error' size='16' type='object-type' binding='global-binding' visibility='default-visibility' is-defined='yes'/>
    <elf-symbol name='_ZTSSt12bad_any_cast' size='17' type='object-type' binding='global-binding' visibility='default-visibility' is-defined='yes'/>
    <elf-symbol name='_ZTSSt12domain_error' size='17' type='object-type' binding='global-binding' visibility='default-visibility' is-defined='yes'/>
    <elf-symbol name='_ZTSSt12length_error' size='17' type='object-type' binding='global-binding' visibility='default-visibility' is-defined='yes'/>
    <elf-symbol name='_ZTSSt12out_of_range' size='17' type='object-type' binding='global-binding' visibility='default-visibility' is-defined='yes'/>
    <elf-symbol name='_ZTSSt13bad_exception' size='18' type='object-type' binding='global-binding' visibility='default-visibility' is-defined='yes'/>
    <elf-symbol name='_ZTSSt13runtime_error' size='18' type='object-type' binding='global-binding' visibility='default-visibility' is-defined='yes'/>
    <elf-symbol name='_ZTSSt14overflow_error' size='19' type='object-type' binding='global-binding' visibility='default-visibility' is-defined='yes'/>
    <elf-symbol name='_ZTSSt15underflow_error' size='20' type='object-type' binding='global-binding' visibility='default-visibility' is-defined='yes'/>
    <elf-symbol name='_ZTSSt16invalid_argument' size='21' type='object-type' binding='global-binding' visibility='default-visibility' is-defined='yes'/>
    <elf-symbol name='_ZTSSt16nested_exception' size='21' type='object-type' binding='global-binding' visibility='default-visibility' is-defined='yes'/>
    <elf-symbol name='_ZTSSt18bad_variant_access' size='23' type='object-type' binding='global-binding' visibility='default-visibility' is-defined='yes'/>
    <elf-symbol name='_ZTSSt19bad_optional_access' size='24' type='object-type' binding='global-binding' visibility='default-visibility' is-defined='yes'/>
    <elf-symbol name='_ZTSSt20bad_array_new_length' size='25' type='object-type' binding='global-binding' visibility='default-visibility' is-defined='yes'/>
    <elf-symbol name='_ZTSSt8bad_cast' size='12' type='object-type' binding='global-binding' visibility='default-visibility' is-defined='yes'/>
    <elf-symbol name='_ZTSSt9bad_alloc' size='13' type='object-type' binding='global-binding' visibility='default-visibility' is-defined='yes'/>
    <elf-symbol name='_ZTSSt9exception' size='13' type='object-type' binding='global-binding' visibility='default-visibility' is-defined='yes'/>
    <elf-symbol name='_ZTSSt9type_info' size='13' type='object-type' binding='global-binding' visibility='default-visibility' is-defined='yes'/>
    <elf-symbol name='_ZTSa' size='2' type='object-type' binding='global-binding' visibility='default-visibility' is-defined='yes'/>
    <elf-symbol name='_ZTSb' size='2' type='object-type' binding='global-binding' visibility='default-visibility' is-defined='yes'/>
    <elf-symbol name='_ZTSc' size='2' type='object-type' binding='global-binding' visibility='default-visibility' is-defined='yes'/>
    <elf-symbol name='_ZTSd' size='2' type='object-type' binding='global-binding' visibility='default-visibility' is-defined='yes'/>
    <elf-symbol name='_ZTSe' size='2' type='object-type' binding='global-binding' visibility='default-visibility' is-defined='yes'/>
    <elf-symbol name='_ZTSf' size='2' type='object-type' binding='global-binding' visibility='default-visibility' is-defined='yes'/>
    <elf-symbol name='_ZTSg' size='2' type='object-type' binding='global-binding' visibility='default-visibility' is-defined='yes'/>
    <elf-symbol name='_ZTSh' size='2' type='object-type' binding='global-binding' visibility='default-visibility' is-defined='yes'/>
    <elf-symbol name='_ZTSi' size='2' type='object-type' binding='global-binding' visibility='default-visibility' is-defined='yes'/>
    <elf-symbol name='_ZTSj' size='2' type='object-type' binding='global-binding' visibility='default-visibility' is-defined='yes'/>
    <elf-symbol name='_ZTSl' size='2' type='object-type' binding='global-binding' visibility='default-visibility' is-defined='yes'/>
    <elf-symbol name='_ZTSm' size='2' type='object-type' binding='global-binding' visibility='default-visibility' is-defined='yes'/>
    <elf-symbol name='_ZTSn' size='2' type='object-type' binding='global-binding' visibility='default-visibility' is-defined='yes'/>
    <elf-symbol name='_ZTSo' size='2' type='object-type' binding='global-binding' visibility='default-visibility' is-defined='yes'/>
    <elf-symbol name='_ZTSs' size='2' type='object-type' binding='global-binding' visibility='default-visibility' is-defined='yes'/>
    <elf-symbol name='_ZTSt' size='2' type='object-type' binding='global-binding' visibility='default-visibility' is-defined='yes'/>
    <elf-symbol name='_ZTSv' size='2' type='object-type' binding='global-binding' visibility='default-visibility' is-defined='yes'/>
    <elf-symbol name='_ZTSw' size='2' type='object-type' binding='global-binding' visibility='default-visibility' is-defined='yes'/>
    <elf-symbol name='_ZTSx' size='2' type='object-type' binding='global-binding' visibility='default-visibility' is-defined='yes'/>
    <elf-symbol name='_ZTSy' size='2' type='object-type' binding='global-binding' visibility='default-visibility' is-defined='yes'/>
    <elf-symbol name='_ZTTNSt4__n110istrstreamE' size='16' type='object-type' binding='global-binding' visibility='default-visibility' is-defined='yes'/>
    <elf-symbol name='_ZTTNSt4__n110ostrstreamE' size='16' type='object-type' binding='global-binding' visibility='default-visibility' is-defined='yes'/>
    <elf-symbol name='_ZTTNSt4__n113basic_istreamIcNS_11char_traitsIcEEEE' size='8' type='object-type' binding='weak-binding' visibility='default-visibility' is-defined='yes'/>
    <elf-symbol name='_ZTTNSt4__n113basic_istreamIwNS_11char_traitsIwEEEE' size='8' type='object-type' binding='weak-binding' visibility='default-visibility' is-defined='yes'/>
    <elf-symbol name='_ZTTNSt4__n113basic_ostreamIcNS_11char_traitsIcEEEE' size='8' type='object-type' binding='weak-binding' visibility='default-visibility' is-defined='yes'/>
    <elf-symbol name='_ZTTNSt4__n113basic_ostreamIwNS_11char_traitsIwEEEE' size='8' type='object-type' binding='weak-binding' visibility='default-visibility' is-defined='yes'/>
    <elf-symbol name='_ZTTNSt4__n114basic_ifstreamIcNS_11char_traitsIcEEEE' size='16' type='object-type' binding='weak-binding' visibility='default-visibility' is-defined='yes'/>
    <elf-symbol name='_ZTTNSt4__n114basic_iostreamIcNS_11char_traitsIcEEEE' size='28' type='object-type' binding='weak-binding' visibility='default-visibility' is-defined='yes'/>
    <elf-symbol name='_ZTTNSt4__n114basic_ofstreamIcNS_11char_traitsIcEEEE' size='16' type='object-type' binding='weak-binding' visibility='default-visibility' is-defined='yes'/>
    <elf-symbol name='_ZTTNSt4__n118basic_stringstreamIcNS_11char_traitsIcEENS_9allocatorIcEEEE' size='40' type='object-type' binding='weak-binding' visibility='default-visibility' is-defined='yes'/>
    <elf-symbol name='_ZTTNSt4__n119basic_istringstreamIcNS_11char_traitsIcEENS_9allocatorIcEEEE' size='16' type='object-type' binding='weak-binding' visibility='default-visibility' is-defined='yes'/>
    <elf-symbol name='_ZTTNSt4__n119basic_ostringstreamIcNS_11char_traitsIcEENS_9allocatorIcEEEE' size='16' type='object-type' binding='weak-binding' visibility='default-visibility' is-defined='yes'/>
    <elf-symbol name='_ZTTNSt4__n19strstreamE' size='40' type='object-type' binding='global-binding' visibility='default-visibility' is-defined='yes'/>
    <elf-symbol name='_ZTVN10__cxxabiv116__enum_type_infoE' size='28' type='object-type' binding='global-binding' visibility='default-visibility' is-defined='yes'/>
    <elf-symbol name='_ZTVN10__cxxabiv116__shim_type_infoE' size='28' type='object-type' binding='global-binding' visibility='default-visibility' is-defined='yes'/>
    <elf-symbol name='_ZTVN10__cxxabiv117__array_type_infoE' size='28' type='object-type' binding='global-binding' visibility='default-visibility' is-defined='yes'/>
    <elf-symbol name='_ZTVN10__cxxabiv117__class_type_infoE' size='40' type='object-type' binding='global-binding' visibility='default-visibility' is-defined='yes'/>
    <elf-symbol name='_ZTVN10__cxxabiv117__pbase_type_infoE' size='28' type='object-type' binding='global-binding' visibility='default-visibility' is-defined='yes'/>
    <elf-symbol name='_ZTVN10__cxxabiv119__pointer_type_infoE' size='28' type='object-type' binding='global-binding' visibility='default-visibility' is-defined='yes'/>
    <elf-symbol name='_ZTVN10__cxxabiv120__function_type_infoE' size='28' type='object-type' binding='global-binding' visibility='default-visibility' is-defined='yes'/>
    <elf-symbol name='_ZTVN10__cxxabiv120__si_class_type_infoE' size='40' type='object-type' binding='global-binding' visibility='default-visibility' is-defined='yes'/>
    <elf-symbol name='_ZTVN10__cxxabiv121__vmi_class_type_infoE' size='40' type='object-type' binding='global-binding' visibility='default-visibility' is-defined='yes'/>
    <elf-symbol name='_ZTVN10__cxxabiv123__fundamental_type_infoE' size='28' type='object-type' binding='global-binding' visibility='default-visibility' is-defined='yes'/>
    <elf-symbol name='_ZTVN10__cxxabiv129__pointer_to_member_type_infoE' size='28' type='object-type' binding='global-binding' visibility='default-visibility' is-defined='yes'/>
    <elf-symbol name='_ZTVNSt12experimental15fundamentals_v112bad_any_castE' size='20' type='object-type' binding='global-binding' visibility='default-visibility' is-defined='yes'/>
    <elf-symbol name='_ZTVNSt12experimental19bad_optional_accessE' size='20' type='object-type' binding='global-binding' visibility='default-visibility' is-defined='yes'/>
    <elf-symbol name='_ZTVNSt4__n110istrstreamE' size='40' type='object-type' binding='global-binding' visibility='default-visibility' is-defined='yes'/>
    <elf-symbol name='_ZTVNSt4__n110moneypunctIcLb0EEE' size='56' type='object-type' binding='weak-binding' visibility='default-visibility' is-defined='yes'/>
    <elf-symbol name='_ZTVNSt4__n110moneypunctIcLb1EEE' size='56' type='object-type' binding='weak-binding' visibility='default-visibility' is-defined='yes'/>
    <elf-symbol name='_ZTVNSt4__n110moneypunctIwLb0EEE' size='56' type='object-type' binding='weak-binding' visibility='default-visibility' is-defined='yes'/>
    <elf-symbol name='_ZTVNSt4__n110moneypunctIwLb1EEE' size='56' type='object-type' binding='weak-binding' visibility='default-visibility' is-defined='yes'/>
    <elf-symbol name='_ZTVNSt4__n110ostrstreamE' size='40' type='object-type' binding='global-binding' visibility='default-visibility' is-defined='yes'/>
    <elf-symbol name='_ZTVNSt4__n111regex_errorE' size='20' type='object-type' binding='global-binding' visibility='default-visibility' is-defined='yes'/>
    <elf-symbol name='_ZTVNSt4__n112bad_weak_ptrE' size='20' type='object-type' binding='global-binding' visibility='default-visibility' is-defined='yes'/>
    <elf-symbol name='_ZTVNSt4__n112ctype_bynameIcEE' size='52' type='object-type' binding='global-binding' visibility='default-visibility' is-defined='yes'/>
    <elf-symbol name='_ZTVNSt4__n112ctype_bynameIwEE' size='68' type='object-type' binding='global-binding' visibility='default-visibility' is-defined='yes'/>
    <elf-symbol name='_ZTVNSt4__n112future_errorE' size='20' type='object-type' binding='global-binding' visibility='default-visibility' is-defined='yes'/>
    <elf-symbol name='_ZTVNSt4__n112strstreambufE' size='64' type='object-type' binding='global-binding' visibility='default-visibility' is-defined='yes'/>
    <elf-symbol name='_ZTVNSt4__n112system_errorE' size='20' type='object-type' binding='global-binding' visibility='default-visibility' is-defined='yes'/>
    <elf-symbol name='_ZTVNSt4__n113basic_filebufIcNS_11char_traitsIcEEEE' size='64' type='object-type' binding='weak-binding' visibility='default-visibility' is-defined='yes'/>
    <elf-symbol name='_ZTVNSt4__n113basic_istreamIcNS_11char_traitsIcEEEE' size='40' type='object-type' binding='weak-binding' visibility='default-visibility' is-defined='yes'/>
    <elf-symbol name='_ZTVNSt4__n113basic_istreamIwNS_11char_traitsIwEEEE' size='40' type='object-type' binding='weak-binding' visibility='default-visibility' is-defined='yes'/>
    <elf-symbol name='_ZTVNSt4__n113basic_ostreamIcNS_11char_traitsIcEEEE' size='40' type='object-type' binding='weak-binding' visibility='default-visibility' is-defined='yes'/>
    <elf-symbol name='_ZTVNSt4__n113basic_ostreamIwNS_11char_traitsIwEEEE' size='40' type='object-type' binding='weak-binding' visibility='default-visibility' is-defined='yes'/>
    <elf-symbol name='_ZTVNSt4__n114__codecvt_utf8IDiEE' size='48' type='object-type' binding='global-binding' visibility='default-visibility' is-defined='yes'/>
    <elf-symbol name='_ZTVNSt4__n114__codecvt_utf8IDsEE' size='48' type='object-type' binding='global-binding' visibility='default-visibility' is-defined='yes'/>
    <elf-symbol name='_ZTVNSt4__n114__codecvt_utf8IwEE' size='48' type='object-type' binding='global-binding' visibility='default-visibility' is-defined='yes'/>
    <elf-symbol name='_ZTVNSt4__n114__shared_countE' size='20' type='object-type' binding='global-binding' visibility='default-visibility' is-defined='yes'/>
    <elf-symbol name='_ZTVNSt4__n114basic_ifstreamIcNS_11char_traitsIcEEEE' size='40' type='object-type' binding='weak-binding' visibility='default-visibility' is-defined='yes'/>
    <elf-symbol name='_ZTVNSt4__n114basic_iostreamIcNS_11char_traitsIcEEEE' size='60' type='object-type' binding='weak-binding' visibility='default-visibility' is-defined='yes'/>
    <elf-symbol name='_ZTVNSt4__n114basic_ofstreamIcNS_11char_traitsIcEEEE' size='40' type='object-type' binding='weak-binding' visibility='default-visibility' is-defined='yes'/>
    <elf-symbol name='_ZTVNSt4__n114codecvt_bynameIDiDu11__mbstate_tEE' size='48' type='object-type' binding='weak-binding' visibility='default-visibility' is-defined='yes'/>
    <elf-symbol name='_ZTVNSt4__n114codecvt_bynameIDic11__mbstate_tEE' size='48' type='object-type' binding='weak-binding' visibility='default-visibility' is-defined='yes'/>
    <elf-symbol name='_ZTVNSt4__n114codecvt_bynameIDsDu11__mbstate_tEE' size='48' type='object-type' binding='weak-binding' visibility='default-visibility' is-defined='yes'/>
    <elf-symbol name='_ZTVNSt4__n114codecvt_bynameIDsc11__mbstate_tEE' size='48' type='object-type' binding='weak-binding' visibility='default-visibility' is-defined='yes'/>
    <elf-symbol name='_ZTVNSt4__n114codecvt_bynameIcc11__mbstate_tEE' size='48' type='object-type' binding='weak-binding' visibility='default-visibility' is-defined='yes'/>
    <elf-symbol name='_ZTVNSt4__n114codecvt_bynameIwc11__mbstate_tEE' size='48' type='object-type' binding='weak-binding' visibility='default-visibility' is-defined='yes'/>
    <elf-symbol name='_ZTVNSt4__n114collate_bynameIcEE' size='32' type='object-type' binding='global-binding' visibility='default-visibility' is-defined='yes'/>
    <elf-symbol name='_ZTVNSt4__n114collate_bynameIwEE' size='32' type='object-type' binding='global-binding' visibility='default-visibility' is-defined='yes'/>
    <elf-symbol name='_ZTVNSt4__n114error_categoryE' size='36' type='object-type' binding='global-binding' visibility='default-visibility' is-defined='yes'/>
    <elf-symbol name='_ZTVNSt4__n115__codecvt_utf16IDiLb0EEE' size='48' type='object-type' binding='global-binding' visibility='default-visibility' is-defined='yes'/>
    <elf-symbol name='_ZTVNSt4__n115__codecvt_utf16IDiLb1EEE' size='48' type='object-type' binding='global-binding' visibility='default-visibility' is-defined='yes'/>
    <elf-symbol name='_ZTVNSt4__n115__codecvt_utf16IDsLb0EEE' size='48' type='object-type' binding='global-binding' visibility='default-visibility' is-defined='yes'/>
    <elf-symbol name='_ZTVNSt4__n115__codecvt_utf16IDsLb1EEE' size='48' type='object-type' binding='global-binding' visibility='default-visibility' is-defined='yes'/>
    <elf-symbol name='_ZTVNSt4__n115__codecvt_utf16IwLb0EEE' size='48' type='object-type' binding='global-binding' visibility='default-visibility' is-defined='yes'/>
    <elf-symbol name='_ZTVNSt4__n115__codecvt_utf16IwLb1EEE' size='48' type='object-type' binding='global-binding' visibility='default-visibility' is-defined='yes'/>
    <elf-symbol name='_ZTVNSt4__n115basic_streambufIcNS_11char_traitsIcEEEE' size='64' type='object-type' binding='weak-binding' visibility='default-visibility' is-defined='yes'/>
    <elf-symbol name='_ZTVNSt4__n115basic_streambufIwNS_11char_traitsIwEEEE' size='64' type='object-type' binding='weak-binding' visibility='default-visibility' is-defined='yes'/>
    <elf-symbol name='_ZTVNSt4__n115basic_stringbufIcNS_11char_traitsIcEENS_9allocatorIcEEEE' size='64' type='object-type' binding='weak-binding' visibility='default-visibility' is-defined='yes'/>
    <elf-symbol name='_ZTVNSt4__n115messages_bynameIcEE' size='32' type='object-type' binding='weak-binding' visibility='default-visibility' is-defined='yes'/>
    <elf-symbol name='_ZTVNSt4__n115messages_bynameIwEE' size='32' type='object-type' binding='weak-binding' visibility='default-visibility' is-defined='yes'/>
    <elf-symbol name='_ZTVNSt4__n115numpunct_bynameIcEE' size='40' type='object-type' binding='global-binding' visibility='default-visibility' is-defined='yes'/>
    <elf-symbol name='_ZTVNSt4__n115numpunct_bynameIwEE' size='40' type='object-type' binding='global-binding' visibility='default-visibility' is-defined='yes'/>
    <elf-symbol name='_ZTVNSt4__n115time_get_bynameIcNS_19istreambuf_iteratorIcNS_11char_traitsIcEEEEEE' size='112' type='object-type' binding='weak-binding' visibility='default-visibility' is-defined='yes'/>
    <elf-symbol name='_ZTVNSt4__n115time_get_bynameIwNS_19istreambuf_iteratorIwNS_11char_traitsIwEEEEEE' size='112' type='object-type' binding='weak-binding' visibility='default-visibility' is-defined='yes'/>
    <elf-symbol name='_ZTVNSt4__n115time_put_bynameIcNS_19ostreambuf_iteratorIcNS_11char_traitsIcEEEEEE' size='24' type='object-type' binding='weak-binding' visibility='default-visibility' is-defined='yes'/>
    <elf-symbol name='_ZTVNSt4__n115time_put_bynameIwNS_19ostreambuf_iteratorIwNS_11char_traitsIwEEEEEE' size='24' type='object-type' binding='weak-binding' visibility='default-visibility' is-defined='yes'/>
    <elf-symbol name='_ZTVNSt4__n116__narrow_to_utf8ILj16EEE' size='48' type='object-type' binding='global-binding' visibility='default-visibility' is-defined='yes'/>
    <elf-symbol name='_ZTVNSt4__n116__narrow_to_utf8ILj32EEE' size='48' type='object-type' binding='global-binding' visibility='default-visibility' is-defined='yes'/>
    <elf-symbol name='_ZTVNSt4__n117__assoc_sub_stateE' size='24' type='object-type' binding='global-binding' visibility='default-visibility' is-defined='yes'/>
    <elf-symbol name='_ZTVNSt4__n117__widen_from_utf8ILj16EEE' size='48' type='object-type' binding='global-binding' visibility='default-visibility' is-defined='yes'/>
    <elf-symbol name='_ZTVNSt4__n117__widen_from_utf8ILj32EEE' size='48' type='object-type' binding='global-binding' visibility='default-visibility' is-defined='yes'/>
    <elf-symbol name='_ZTVNSt4__n117bad_function_callE' size='20' type='object-type' binding='global-binding' visibility='default-visibility' is-defined='yes'/>
    <elf-symbol name='_ZTVNSt4__n117moneypunct_bynameIcLb0EEE' size='56' type='object-type' binding='weak-binding' visibility='default-visibility' is-defined='yes'/>
    <elf-symbol name='_ZTVNSt4__n117moneypunct_bynameIcLb1EEE' size='56' type='object-type' binding='weak-binding' visibility='default-visibility' is-defined='yes'/>
    <elf-symbol name='_ZTVNSt4__n117moneypunct_bynameIwLb0EEE' size='56' type='object-type' binding='weak-binding' visibility='default-visibility' is-defined='yes'/>
    <elf-symbol name='_ZTVNSt4__n117moneypunct_bynameIwLb1EEE' size='56' type='object-type' binding='weak-binding' visibility='default-visibility' is-defined='yes'/>
    <elf-symbol name='_ZTVNSt4__n118basic_stringstreamIcNS_11char_traitsIcEENS_9allocatorIcEEEE' size='60' type='object-type' binding='weak-binding' visibility='default-visibility' is-defined='yes'/>
    <elf-symbol name='_ZTVNSt4__n119__shared_weak_countE' size='28' type='object-type' binding='global-binding' visibility='default-visibility' is-defined='yes'/>
    <elf-symbol name='_ZTVNSt4__n119basic_istringstreamIcNS_11char_traitsIcEENS_9allocatorIcEEEE' size='40' type='object-type' binding='weak-binding' visibility='default-visibility' is-defined='yes'/>
    <elf-symbol name='_ZTVNSt4__n119basic_ostringstreamIcNS_11char_traitsIcEENS_9allocatorIcEEEE' size='40' type='object-type' binding='weak-binding' visibility='default-visibility' is-defined='yes'/>
    <elf-symbol name='_ZTVNSt4__n120__codecvt_utf8_utf16IDiEE' size='48' type='object-type' binding='global-binding' visibility='default-visibility' is-defined='yes'/>
    <elf-symbol name='_ZTVNSt4__n120__codecvt_utf8_utf16IDsEE' size='48' type='object-type' binding='global-binding' visibility='default-visibility' is-defined='yes'/>
    <elf-symbol name='_ZTVNSt4__n120__codecvt_utf8_utf16IwEE' size='48' type='object-type' binding='global-binding' visibility='default-visibility' is-defined='yes'/>
    <elf-symbol name='_ZTVNSt4__n14__fs10filesystem16filesystem_errorE' size='20' type='object-type' binding='global-binding' visibility='default-visibility' is-defined='yes'/>
    <elf-symbol name='_ZTVNSt4__n15ctypeIcEE' size='52' type='object-type' binding='global-binding' visibility='default-visibility' is-defined='yes'/>
    <elf-symbol name='_ZTVNSt4__n15ctypeIwEE' size='68' type='object-type' binding='global-binding' visibility='default-visibility' is-defined='yes'/>
    <elf-symbol name='_ZTVNSt4__n16locale5facetE' size='20' type='object-type' binding='global-binding' visibility='default-visibility' is-defined='yes'/>
    <elf-symbol name='_ZTVNSt4__n17codecvtIDiDu11__mbstate_tEE' size='48' type='object-type' binding='global-binding' visibility='default-visibility' is-defined='yes'/>
    <elf-symbol name='_ZTVNSt4__n17codecvtIDic11__mbstate_tEE' size='48' type='object-type' binding='global-binding' visibility='default-visibility' is-defined='yes'/>
    <elf-symbol name='_ZTVNSt4__n17codecvtIDsDu11__mbstate_tEE' size='48' type='object-type' binding='global-binding' visibility='default-visibility' is-defined='yes'/>
    <elf-symbol name='_ZTVNSt4__n17codecvtIDsc11__mbstate_tEE' size='48' type='object-type' binding='global-binding' visibility='default-visibility' is-defined='yes'/>
    <elf-symbol name='_ZTVNSt4__n17codecvtIcc11__mbstate_tEE' size='48' type='object-type' binding='global-binding' visibility='default-visibility' is-defined='yes'/>
    <elf-symbol name='_ZTVNSt4__n17codecvtIwc11__mbstate_tEE' size='48' type='object-type' binding='global-binding' visibility='default-visibility' is-defined='yes'/>
    <elf-symbol name='_ZTVNSt4__n17collateIcEE' size='32' type='object-type' binding='weak-binding' visibility='default-visibility' is-defined='yes'/>
    <elf-symbol name='_ZTVNSt4__n17collateIwEE' size='32' type='object-type' binding='weak-binding' visibility='default-visibility' is-defined='yes'/>
    <elf-symbol name='_ZTVNSt4__n17num_getIcNS_19istreambuf_iteratorIcNS_11char_traitsIcEEEEEE' size='64' type='object-type' binding='weak-binding' visibility='default-visibility' is-defined='yes'/>
    <elf-symbol name='_ZTVNSt4__n17num_getIwNS_19istreambuf_iteratorIwNS_11char_traitsIwEEEEEE' size='64' type='object-type' binding='weak-binding' visibility='default-visibility' is-defined='yes'/>
    <elf-symbol name='_ZTVNSt4__n17num_putIcNS_19ostreambuf_iteratorIcNS_11char_traitsIcEEEEEE' size='52' type='object-type' binding='weak-binding' visibility='default-visibility' is-defined='yes'/>
    <elf-symbol name='_ZTVNSt4__n17num_putIwNS_19ostreambuf_iteratorIwNS_11char_traitsIwEEEEEE' size='52' type='object-type' binding='weak-binding' visibility='default-visibility' is-defined='yes'/>
    <elf-symbol name='_ZTVNSt4__n18ios_base7failureE' size='20' type='object-type' binding='global-binding' visibility='default-visibility' is-defined='yes'/>
    <elf-symbol name='_ZTVNSt4__n18ios_baseE' size='16' type='object-type' binding='global-binding' visibility='default-visibility' is-defined='yes'/>
    <elf-symbol name='_ZTVNSt4__n18messagesIcEE' size='32' type='object-type' binding='weak-binding' visibility='default-visibility' is-defined='yes'/>
    <elf-symbol name='_ZTVNSt4__n18messagesIwEE' size='32' type='object-type' binding='weak-binding' visibility='default-visibility' is-defined='yes'/>
    <elf-symbol name='_ZTVNSt4__n18numpunctIcEE' size='40' type='object-type' binding='global-binding' visibility='default-visibility' is-defined='yes'/>
    <elf-symbol name='_ZTVNSt4__n18numpunctIwEE' size='40' type='object-type' binding='global-binding' visibility='default-visibility' is-defined='yes'/>
    <elf-symbol name='_ZTVNSt4__n18time_getIcNS_19istreambuf_iteratorIcNS_11char_traitsIcEEEEEE' size='84' type='object-type' binding='weak-binding' visibility='default-visibility' is-defined='yes'/>
    <elf-symbol name='_ZTVNSt4__n18time_getIwNS_19istreambuf_iteratorIwNS_11char_traitsIwEEEEEE' size='84' type='object-type' binding='weak-binding' visibility='default-visibility' is-defined='yes'/>
    <elf-symbol name='_ZTVNSt4__n18time_putIcNS_19ostreambuf_iteratorIcNS_11char_traitsIcEEEEEE' size='24' type='object-type' binding='weak-binding' visibility='default-visibility' is-defined='yes'/>
    <elf-symbol name='_ZTVNSt4__n18time_putIwNS_19ostreambuf_iteratorIwNS_11char_traitsIwEEEEEE' size='24' type='object-type' binding='weak-binding' visibility='default-visibility' is-defined='yes'/>
    <elf-symbol name='_ZTVNSt4__n19basic_iosIcNS_11char_traitsIcEEEE' size='16' type='object-type' binding='weak-binding' visibility='default-visibility' is-defined='yes'/>
    <elf-symbol name='_ZTVNSt4__n19basic_iosIwNS_11char_traitsIwEEEE' size='16' type='object-type' binding='weak-binding' visibility='default-visibility' is-defined='yes'/>
    <elf-symbol name='_ZTVNSt4__n19money_getIcNS_19istreambuf_iteratorIcNS_11char_traitsIcEEEEEE' size='28' type='object-type' binding='weak-binding' visibility='default-visibility' is-defined='yes'/>
    <elf-symbol name='_ZTVNSt4__n19money_getIwNS_19istreambuf_iteratorIwNS_11char_traitsIwEEEEEE' size='28' type='object-type' binding='weak-binding' visibility='default-visibility' is-defined='yes'/>
    <elf-symbol name='_ZTVNSt4__n19money_putIcNS_19ostreambuf_iteratorIcNS_11char_traitsIcEEEEEE' size='28' type='object-type' binding='weak-binding' visibility='default-visibility' is-defined='yes'/>
    <elf-symbol name='_ZTVNSt4__n19money_putIwNS_19ostreambuf_iteratorIwNS_11char_traitsIwEEEEEE' size='28' type='object-type' binding='weak-binding' visibility='default-visibility' is-defined='yes'/>
    <elf-symbol name='_ZTVNSt4__n19strstreamE' size='60' type='object-type' binding='global-binding' visibility='default-visibility' is-defined='yes'/>
    <elf-symbol name='_ZTVSt10bad_typeid' size='20' type='object-type' binding='global-binding' visibility='default-visibility' is-defined='yes'/>
    <elf-symbol name='_ZTVSt11logic_error' size='20' type='object-type' binding='global-binding' visibility='default-visibility' is-defined='yes'/>
    <elf-symbol name='_ZTVSt11range_error' size='20' type='object-type' binding='global-binding' visibility='default-visibility' is-defined='yes'/>
    <elf-symbol name='_ZTVSt12bad_any_cast' size='20' type='object-type' binding='global-binding' visibility='default-visibility' is-defined='yes'/>
    <elf-symbol name='_ZTVSt12domain_error' size='20' type='object-type' binding='global-binding' visibility='default-visibility' is-defined='yes'/>
    <elf-symbol name='_ZTVSt12length_error' size='20' type='object-type' binding='global-binding' visibility='default-visibility' is-defined='yes'/>
    <elf-symbol name='_ZTVSt12out_of_range' size='20' type='object-type' binding='global-binding' visibility='default-visibility' is-defined='yes'/>
    <elf-symbol name='_ZTVSt13bad_exception' size='20' type='object-type' binding='global-binding' visibility='default-visibility' is-defined='yes'/>
    <elf-symbol name='_ZTVSt13runtime_error' size='20' type='object-type' binding='global-binding' visibility='default-visibility' is-defined='yes'/>
    <elf-symbol name='_ZTVSt14overflow_error' size='20' type='object-type' binding='global-binding' visibility='default-visibility' is-defined='yes'/>
    <elf-symbol name='_ZTVSt15underflow_error' size='20' type='object-type' binding='global-binding' visibility='default-visibility' is-defined='yes'/>
    <elf-symbol name='_ZTVSt16invalid_argument' size='20' type='object-type' binding='global-binding' visibility='default-visibility' is-defined='yes'/>
    <elf-symbol name='_ZTVSt16nested_exception' size='16' type='object-type' binding='global-binding' visibility='default-visibility' is-defined='yes'/>
    <elf-symbol name='_ZTVSt18bad_variant_access' size='20' type='object-type' binding='global-binding' visibility='default-visibility' is-defined='yes'/>
    <elf-symbol name='_ZTVSt19bad_optional_access' size='20' type='object-type' binding='global-binding' visibility='default-visibility' is-defined='yes'/>
    <elf-symbol name='_ZTVSt20bad_array_new_length' size='20' type='object-type' binding='global-binding' visibility='default-visibility' is-defined='yes'/>
    <elf-symbol name='_ZTVSt8bad_cast' size='20' type='object-type' binding='global-binding' visibility='default-visibility' is-defined='yes'/>
    <elf-symbol name='_ZTVSt9bad_alloc' size='20' type='object-type' binding='global-binding' visibility='default-visibility' is-defined='yes'/>
    <elf-symbol name='_ZTVSt9exception' size='20' type='object-type' binding='global-binding' visibility='default-visibility' is-defined='yes'/>
    <elf-symbol name='_ZTVSt9type_info' size='16' type='object-type' binding='global-binding' visibility='default-visibility' is-defined='yes'/>
    <elf-symbol name='__cxa_new_handler' size='4' type='object-type' binding='global-binding' visibility='default-visibility' is-defined='yes'/>
    <elf-symbol name='__cxa_terminate_handler' size='4' type='object-type' binding='global-binding' visibility='default-visibility' is-defined='yes'/>
    <elf-symbol name='__cxa_unexpected_handler' size='4' type='object-type' binding='global-binding' visibility='default-visibility' is-defined='yes'/>
    <elf-symbol name='unw_local_addr_space' size='4' type='object-type' binding='global-binding' visibility='default-visibility' is-defined='yes'/>
  </elf-variable-symbols>
</abi-corpus>
